
ctarget：     文件格式 elf64-x86-64


Disassembly of section .init:

0000000000401000 <_init>:
  401000:	f3 0f 1e fa          	endbr64 
  401004:	48 83 ec 08          	sub    $0x8,%rsp
  401008:	48 8b 05 e9 5f 00 00 	mov    0x5fe9(%rip),%rax        # 406ff8 <__gmon_start__@Base>
  40100f:	48 85 c0             	test   %rax,%rax
  401012:	74 02                	je     401016 <_init+0x16>
  401014:	ff d0                	call   *%rax
  401016:	48 83 c4 08          	add    $0x8,%rsp
  40101a:	c3                   	ret    

Disassembly of section .plt:

0000000000401020 <.plt>:
  401020:	ff 35 e2 5f 00 00    	push   0x5fe2(%rip)        # 407008 <_GLOBAL_OFFSET_TABLE_+0x8>
  401026:	f2 ff 25 e3 5f 00 00 	bnd jmp *0x5fe3(%rip)        # 407010 <_GLOBAL_OFFSET_TABLE_+0x10>
  40102d:	0f 1f 00             	nopl   (%rax)
  401030:	f3 0f 1e fa          	endbr64 
  401034:	68 00 00 00 00       	push   $0x0
  401039:	f2 e9 e1 ff ff ff    	bnd jmp 401020 <_init+0x20>
  40103f:	90                   	nop
  401040:	f3 0f 1e fa          	endbr64 
  401044:	68 01 00 00 00       	push   $0x1
  401049:	f2 e9 d1 ff ff ff    	bnd jmp 401020 <_init+0x20>
  40104f:	90                   	nop
  401050:	f3 0f 1e fa          	endbr64 
  401054:	68 02 00 00 00       	push   $0x2
  401059:	f2 e9 c1 ff ff ff    	bnd jmp 401020 <_init+0x20>
  40105f:	90                   	nop
  401060:	f3 0f 1e fa          	endbr64 
  401064:	68 03 00 00 00       	push   $0x3
  401069:	f2 e9 b1 ff ff ff    	bnd jmp 401020 <_init+0x20>
  40106f:	90                   	nop
  401070:	f3 0f 1e fa          	endbr64 
  401074:	68 04 00 00 00       	push   $0x4
  401079:	f2 e9 a1 ff ff ff    	bnd jmp 401020 <_init+0x20>
  40107f:	90                   	nop
  401080:	f3 0f 1e fa          	endbr64 
  401084:	68 05 00 00 00       	push   $0x5
  401089:	f2 e9 91 ff ff ff    	bnd jmp 401020 <_init+0x20>
  40108f:	90                   	nop
  401090:	f3 0f 1e fa          	endbr64 
  401094:	68 06 00 00 00       	push   $0x6
  401099:	f2 e9 81 ff ff ff    	bnd jmp 401020 <_init+0x20>
  40109f:	90                   	nop
  4010a0:	f3 0f 1e fa          	endbr64 
  4010a4:	68 07 00 00 00       	push   $0x7
  4010a9:	f2 e9 71 ff ff ff    	bnd jmp 401020 <_init+0x20>
  4010af:	90                   	nop
  4010b0:	f3 0f 1e fa          	endbr64 
  4010b4:	68 08 00 00 00       	push   $0x8
  4010b9:	f2 e9 61 ff ff ff    	bnd jmp 401020 <_init+0x20>
  4010bf:	90                   	nop
  4010c0:	f3 0f 1e fa          	endbr64 
  4010c4:	68 09 00 00 00       	push   $0x9
  4010c9:	f2 e9 51 ff ff ff    	bnd jmp 401020 <_init+0x20>
  4010cf:	90                   	nop
  4010d0:	f3 0f 1e fa          	endbr64 
  4010d4:	68 0a 00 00 00       	push   $0xa
  4010d9:	f2 e9 41 ff ff ff    	bnd jmp 401020 <_init+0x20>
  4010df:	90                   	nop
  4010e0:	f3 0f 1e fa          	endbr64 
  4010e4:	68 0b 00 00 00       	push   $0xb
  4010e9:	f2 e9 31 ff ff ff    	bnd jmp 401020 <_init+0x20>
  4010ef:	90                   	nop
  4010f0:	f3 0f 1e fa          	endbr64 
  4010f4:	68 0c 00 00 00       	push   $0xc
  4010f9:	f2 e9 21 ff ff ff    	bnd jmp 401020 <_init+0x20>
  4010ff:	90                   	nop
  401100:	f3 0f 1e fa          	endbr64 
  401104:	68 0d 00 00 00       	push   $0xd
  401109:	f2 e9 11 ff ff ff    	bnd jmp 401020 <_init+0x20>
  40110f:	90                   	nop
  401110:	f3 0f 1e fa          	endbr64 
  401114:	68 0e 00 00 00       	push   $0xe
  401119:	f2 e9 01 ff ff ff    	bnd jmp 401020 <_init+0x20>
  40111f:	90                   	nop
  401120:	f3 0f 1e fa          	endbr64 
  401124:	68 0f 00 00 00       	push   $0xf
  401129:	f2 e9 f1 fe ff ff    	bnd jmp 401020 <_init+0x20>
  40112f:	90                   	nop
  401130:	f3 0f 1e fa          	endbr64 
  401134:	68 10 00 00 00       	push   $0x10
  401139:	f2 e9 e1 fe ff ff    	bnd jmp 401020 <_init+0x20>
  40113f:	90                   	nop
  401140:	f3 0f 1e fa          	endbr64 
  401144:	68 11 00 00 00       	push   $0x11
  401149:	f2 e9 d1 fe ff ff    	bnd jmp 401020 <_init+0x20>
  40114f:	90                   	nop
  401150:	f3 0f 1e fa          	endbr64 
  401154:	68 12 00 00 00       	push   $0x12
  401159:	f2 e9 c1 fe ff ff    	bnd jmp 401020 <_init+0x20>
  40115f:	90                   	nop
  401160:	f3 0f 1e fa          	endbr64 
  401164:	68 13 00 00 00       	push   $0x13
  401169:	f2 e9 b1 fe ff ff    	bnd jmp 401020 <_init+0x20>
  40116f:	90                   	nop
  401170:	f3 0f 1e fa          	endbr64 
  401174:	68 14 00 00 00       	push   $0x14
  401179:	f2 e9 a1 fe ff ff    	bnd jmp 401020 <_init+0x20>
  40117f:	90                   	nop
  401180:	f3 0f 1e fa          	endbr64 
  401184:	68 15 00 00 00       	push   $0x15
  401189:	f2 e9 91 fe ff ff    	bnd jmp 401020 <_init+0x20>
  40118f:	90                   	nop
  401190:	f3 0f 1e fa          	endbr64 
  401194:	68 16 00 00 00       	push   $0x16
  401199:	f2 e9 81 fe ff ff    	bnd jmp 401020 <_init+0x20>
  40119f:	90                   	nop
  4011a0:	f3 0f 1e fa          	endbr64 
  4011a4:	68 17 00 00 00       	push   $0x17
  4011a9:	f2 e9 71 fe ff ff    	bnd jmp 401020 <_init+0x20>
  4011af:	90                   	nop
  4011b0:	f3 0f 1e fa          	endbr64 
  4011b4:	68 18 00 00 00       	push   $0x18
  4011b9:	f2 e9 61 fe ff ff    	bnd jmp 401020 <_init+0x20>
  4011bf:	90                   	nop
  4011c0:	f3 0f 1e fa          	endbr64 
  4011c4:	68 19 00 00 00       	push   $0x19
  4011c9:	f2 e9 51 fe ff ff    	bnd jmp 401020 <_init+0x20>
  4011cf:	90                   	nop
  4011d0:	f3 0f 1e fa          	endbr64 
  4011d4:	68 1a 00 00 00       	push   $0x1a
  4011d9:	f2 e9 41 fe ff ff    	bnd jmp 401020 <_init+0x20>
  4011df:	90                   	nop
  4011e0:	f3 0f 1e fa          	endbr64 
  4011e4:	68 1b 00 00 00       	push   $0x1b
  4011e9:	f2 e9 31 fe ff ff    	bnd jmp 401020 <_init+0x20>
  4011ef:	90                   	nop
  4011f0:	f3 0f 1e fa          	endbr64 
  4011f4:	68 1c 00 00 00       	push   $0x1c
  4011f9:	f2 e9 21 fe ff ff    	bnd jmp 401020 <_init+0x20>
  4011ff:	90                   	nop
  401200:	f3 0f 1e fa          	endbr64 
  401204:	68 1d 00 00 00       	push   $0x1d
  401209:	f2 e9 11 fe ff ff    	bnd jmp 401020 <_init+0x20>
  40120f:	90                   	nop
  401210:	f3 0f 1e fa          	endbr64 
  401214:	68 1e 00 00 00       	push   $0x1e
  401219:	f2 e9 01 fe ff ff    	bnd jmp 401020 <_init+0x20>
  40121f:	90                   	nop
  401220:	f3 0f 1e fa          	endbr64 
  401224:	68 1f 00 00 00       	push   $0x1f
  401229:	f2 e9 f1 fd ff ff    	bnd jmp 401020 <_init+0x20>
  40122f:	90                   	nop
  401230:	f3 0f 1e fa          	endbr64 
  401234:	68 20 00 00 00       	push   $0x20
  401239:	f2 e9 e1 fd ff ff    	bnd jmp 401020 <_init+0x20>
  40123f:	90                   	nop
  401240:	f3 0f 1e fa          	endbr64 
  401244:	68 21 00 00 00       	push   $0x21
  401249:	f2 e9 d1 fd ff ff    	bnd jmp 401020 <_init+0x20>
  40124f:	90                   	nop
  401250:	f3 0f 1e fa          	endbr64 
  401254:	68 22 00 00 00       	push   $0x22
  401259:	f2 e9 c1 fd ff ff    	bnd jmp 401020 <_init+0x20>
  40125f:	90                   	nop

Disassembly of section .plt.sec:

0000000000401260 <strcasecmp@plt>:
  401260:	f3 0f 1e fa          	endbr64 
  401264:	f2 ff 25 ad 5d 00 00 	bnd jmp *0x5dad(%rip)        # 407018 <strcasecmp@GLIBC_2.2.5>
  40126b:	0f 1f 44 00 00       	nopl   0x0(%rax,%rax,1)

0000000000401270 <__errno_location@plt>:
  401270:	f3 0f 1e fa          	endbr64 
  401274:	f2 ff 25 a5 5d 00 00 	bnd jmp *0x5da5(%rip)        # 407020 <__errno_location@GLIBC_2.2.5>
  40127b:	0f 1f 44 00 00       	nopl   0x0(%rax,%rax,1)

0000000000401280 <srandom@plt>:
  401280:	f3 0f 1e fa          	endbr64 
  401284:	f2 ff 25 9d 5d 00 00 	bnd jmp *0x5d9d(%rip)        # 407028 <srandom@GLIBC_2.2.5>
  40128b:	0f 1f 44 00 00       	nopl   0x0(%rax,%rax,1)

0000000000401290 <strncmp@plt>:
  401290:	f3 0f 1e fa          	endbr64 
  401294:	f2 ff 25 95 5d 00 00 	bnd jmp *0x5d95(%rip)        # 407030 <strncmp@GLIBC_2.2.5>
  40129b:	0f 1f 44 00 00       	nopl   0x0(%rax,%rax,1)

00000000004012a0 <strcpy@plt>:
  4012a0:	f3 0f 1e fa          	endbr64 
  4012a4:	f2 ff 25 8d 5d 00 00 	bnd jmp *0x5d8d(%rip)        # 407038 <strcpy@GLIBC_2.2.5>
  4012ab:	0f 1f 44 00 00       	nopl   0x0(%rax,%rax,1)

00000000004012b0 <__read_chk@plt>:
  4012b0:	f3 0f 1e fa          	endbr64 
  4012b4:	f2 ff 25 85 5d 00 00 	bnd jmp *0x5d85(%rip)        # 407040 <__read_chk@GLIBC_2.4>
  4012bb:	0f 1f 44 00 00       	nopl   0x0(%rax,%rax,1)

00000000004012c0 <puts@plt>:
  4012c0:	f3 0f 1e fa          	endbr64 
  4012c4:	f2 ff 25 7d 5d 00 00 	bnd jmp *0x5d7d(%rip)        # 407048 <puts@GLIBC_2.2.5>
  4012cb:	0f 1f 44 00 00       	nopl   0x0(%rax,%rax,1)

00000000004012d0 <write@plt>:
  4012d0:	f3 0f 1e fa          	endbr64 
  4012d4:	f2 ff 25 75 5d 00 00 	bnd jmp *0x5d75(%rip)        # 407050 <write@GLIBC_2.2.5>
  4012db:	0f 1f 44 00 00       	nopl   0x0(%rax,%rax,1)

00000000004012e0 <strlen@plt>:
  4012e0:	f3 0f 1e fa          	endbr64 
  4012e4:	f2 ff 25 6d 5d 00 00 	bnd jmp *0x5d6d(%rip)        # 407058 <strlen@GLIBC_2.2.5>
  4012eb:	0f 1f 44 00 00       	nopl   0x0(%rax,%rax,1)

00000000004012f0 <__stack_chk_fail@plt>:
  4012f0:	f3 0f 1e fa          	endbr64 
  4012f4:	f2 ff 25 65 5d 00 00 	bnd jmp *0x5d65(%rip)        # 407060 <__stack_chk_fail@GLIBC_2.4>
  4012fb:	0f 1f 44 00 00       	nopl   0x0(%rax,%rax,1)

0000000000401300 <mmap@plt>:
  401300:	f3 0f 1e fa          	endbr64 
  401304:	f2 ff 25 5d 5d 00 00 	bnd jmp *0x5d5d(%rip)        # 407068 <mmap@GLIBC_2.2.5>
  40130b:	0f 1f 44 00 00       	nopl   0x0(%rax,%rax,1)

0000000000401310 <memset@plt>:
  401310:	f3 0f 1e fa          	endbr64 
  401314:	f2 ff 25 55 5d 00 00 	bnd jmp *0x5d55(%rip)        # 407070 <memset@GLIBC_2.2.5>
  40131b:	0f 1f 44 00 00       	nopl   0x0(%rax,%rax,1)

0000000000401320 <alarm@plt>:
  401320:	f3 0f 1e fa          	endbr64 
  401324:	f2 ff 25 4d 5d 00 00 	bnd jmp *0x5d4d(%rip)        # 407078 <alarm@GLIBC_2.2.5>
  40132b:	0f 1f 44 00 00       	nopl   0x0(%rax,%rax,1)

0000000000401330 <close@plt>:
  401330:	f3 0f 1e fa          	endbr64 
  401334:	f2 ff 25 45 5d 00 00 	bnd jmp *0x5d45(%rip)        # 407080 <close@GLIBC_2.2.5>
  40133b:	0f 1f 44 00 00       	nopl   0x0(%rax,%rax,1)

0000000000401340 <strcmp@plt>:
  401340:	f3 0f 1e fa          	endbr64 
  401344:	f2 ff 25 3d 5d 00 00 	bnd jmp *0x5d3d(%rip)        # 407088 <strcmp@GLIBC_2.2.5>
  40134b:	0f 1f 44 00 00       	nopl   0x0(%rax,%rax,1)

0000000000401350 <signal@plt>:
  401350:	f3 0f 1e fa          	endbr64 
  401354:	f2 ff 25 35 5d 00 00 	bnd jmp *0x5d35(%rip)        # 407090 <signal@GLIBC_2.2.5>
  40135b:	0f 1f 44 00 00       	nopl   0x0(%rax,%rax,1)

0000000000401360 <gethostbyname@plt>:
  401360:	f3 0f 1e fa          	endbr64 
  401364:	f2 ff 25 2d 5d 00 00 	bnd jmp *0x5d2d(%rip)        # 407098 <gethostbyname@GLIBC_2.2.5>
  40136b:	0f 1f 44 00 00       	nopl   0x0(%rax,%rax,1)

0000000000401370 <__memmove_chk@plt>:
  401370:	f3 0f 1e fa          	endbr64 
  401374:	f2 ff 25 25 5d 00 00 	bnd jmp *0x5d25(%rip)        # 4070a0 <__memmove_chk@GLIBC_2.3.4>
  40137b:	0f 1f 44 00 00       	nopl   0x0(%rax,%rax,1)

0000000000401380 <strtol@plt>:
  401380:	f3 0f 1e fa          	endbr64 
  401384:	f2 ff 25 1d 5d 00 00 	bnd jmp *0x5d1d(%rip)        # 4070a8 <strtol@GLIBC_2.2.5>
  40138b:	0f 1f 44 00 00       	nopl   0x0(%rax,%rax,1)

0000000000401390 <memcpy@plt>:
  401390:	f3 0f 1e fa          	endbr64 
  401394:	f2 ff 25 15 5d 00 00 	bnd jmp *0x5d15(%rip)        # 4070b0 <memcpy@GLIBC_2.14>
  40139b:	0f 1f 44 00 00       	nopl   0x0(%rax,%rax,1)

00000000004013a0 <time@plt>:
  4013a0:	f3 0f 1e fa          	endbr64 
  4013a4:	f2 ff 25 0d 5d 00 00 	bnd jmp *0x5d0d(%rip)        # 4070b8 <time@GLIBC_2.2.5>
  4013ab:	0f 1f 44 00 00       	nopl   0x0(%rax,%rax,1)

00000000004013b0 <random@plt>:
  4013b0:	f3 0f 1e fa          	endbr64 
  4013b4:	f2 ff 25 05 5d 00 00 	bnd jmp *0x5d05(%rip)        # 4070c0 <random@GLIBC_2.2.5>
  4013bb:	0f 1f 44 00 00       	nopl   0x0(%rax,%rax,1)

00000000004013c0 <__isoc99_sscanf@plt>:
  4013c0:	f3 0f 1e fa          	endbr64 
  4013c4:	f2 ff 25 fd 5c 00 00 	bnd jmp *0x5cfd(%rip)        # 4070c8 <__isoc99_sscanf@GLIBC_2.7>
  4013cb:	0f 1f 44 00 00       	nopl   0x0(%rax,%rax,1)

00000000004013d0 <munmap@plt>:
  4013d0:	f3 0f 1e fa          	endbr64 
  4013d4:	f2 ff 25 f5 5c 00 00 	bnd jmp *0x5cf5(%rip)        # 4070d0 <munmap@GLIBC_2.2.5>
  4013db:	0f 1f 44 00 00       	nopl   0x0(%rax,%rax,1)

00000000004013e0 <__printf_chk@plt>:
  4013e0:	f3 0f 1e fa          	endbr64 
  4013e4:	f2 ff 25 ed 5c 00 00 	bnd jmp *0x5ced(%rip)        # 4070d8 <__printf_chk@GLIBC_2.3.4>
  4013eb:	0f 1f 44 00 00       	nopl   0x0(%rax,%rax,1)

00000000004013f0 <fopen@plt>:
  4013f0:	f3 0f 1e fa          	endbr64 
  4013f4:	f2 ff 25 e5 5c 00 00 	bnd jmp *0x5ce5(%rip)        # 4070e0 <fopen@GLIBC_2.2.5>
  4013fb:	0f 1f 44 00 00       	nopl   0x0(%rax,%rax,1)

0000000000401400 <getopt@plt>:
  401400:	f3 0f 1e fa          	endbr64 
  401404:	f2 ff 25 dd 5c 00 00 	bnd jmp *0x5cdd(%rip)        # 4070e8 <getopt@GLIBC_2.2.5>
  40140b:	0f 1f 44 00 00       	nopl   0x0(%rax,%rax,1)

0000000000401410 <strtoul@plt>:
  401410:	f3 0f 1e fa          	endbr64 
  401414:	f2 ff 25 d5 5c 00 00 	bnd jmp *0x5cd5(%rip)        # 4070f0 <strtoul@GLIBC_2.2.5>
  40141b:	0f 1f 44 00 00       	nopl   0x0(%rax,%rax,1)

0000000000401420 <gethostname@plt>:
  401420:	f3 0f 1e fa          	endbr64 
  401424:	f2 ff 25 cd 5c 00 00 	bnd jmp *0x5ccd(%rip)        # 4070f8 <gethostname@GLIBC_2.2.5>
  40142b:	0f 1f 44 00 00       	nopl   0x0(%rax,%rax,1)

0000000000401430 <exit@plt>:
  401430:	f3 0f 1e fa          	endbr64 
  401434:	f2 ff 25 c5 5c 00 00 	bnd jmp *0x5cc5(%rip)        # 407100 <exit@GLIBC_2.2.5>
  40143b:	0f 1f 44 00 00       	nopl   0x0(%rax,%rax,1)

0000000000401440 <connect@plt>:
  401440:	f3 0f 1e fa          	endbr64 
  401444:	f2 ff 25 bd 5c 00 00 	bnd jmp *0x5cbd(%rip)        # 407108 <connect@GLIBC_2.2.5>
  40144b:	0f 1f 44 00 00       	nopl   0x0(%rax,%rax,1)

0000000000401450 <__fprintf_chk@plt>:
  401450:	f3 0f 1e fa          	endbr64 
  401454:	f2 ff 25 b5 5c 00 00 	bnd jmp *0x5cb5(%rip)        # 407110 <__fprintf_chk@GLIBC_2.3.4>
  40145b:	0f 1f 44 00 00       	nopl   0x0(%rax,%rax,1)

0000000000401460 <getc@plt>:
  401460:	f3 0f 1e fa          	endbr64 
  401464:	f2 ff 25 ad 5c 00 00 	bnd jmp *0x5cad(%rip)        # 407118 <getc@GLIBC_2.2.5>
  40146b:	0f 1f 44 00 00       	nopl   0x0(%rax,%rax,1)

0000000000401470 <__sprintf_chk@plt>:
  401470:	f3 0f 1e fa          	endbr64 
  401474:	f2 ff 25 a5 5c 00 00 	bnd jmp *0x5ca5(%rip)        # 407120 <__sprintf_chk@GLIBC_2.3.4>
  40147b:	0f 1f 44 00 00       	nopl   0x0(%rax,%rax,1)

0000000000401480 <socket@plt>:
  401480:	f3 0f 1e fa          	endbr64 
  401484:	f2 ff 25 9d 5c 00 00 	bnd jmp *0x5c9d(%rip)        # 407128 <socket@GLIBC_2.2.5>
  40148b:	0f 1f 44 00 00       	nopl   0x0(%rax,%rax,1)

Disassembly of section .text:

0000000000401490 <_start>:
  401490:	f3 0f 1e fa          	endbr64 
  401494:	31 ed                	xor    %ebp,%ebp
  401496:	49 89 d1             	mov    %rdx,%r9
  401499:	5e                   	pop    %rsi
  40149a:	48 89 e2             	mov    %rsp,%rdx
  40149d:	48 83 e4 f0          	and    $0xfffffffffffffff0,%rsp
  4014a1:	50                   	push   %rax
  4014a2:	54                   	push   %rsp
  4014a3:	45 31 c0             	xor    %r8d,%r8d
  4014a6:	31 c9                	xor    %ecx,%ecx
  4014a8:	48 c7 c7 b7 17 40 00 	mov    $0x4017b7,%rdi
  4014af:	ff 15 3b 5b 00 00    	call   *0x5b3b(%rip)        # 406ff0 <__libc_start_main@GLIBC_2.34>
  4014b5:	f4                   	hlt    
  4014b6:	66 2e 0f 1f 84 00 00 	cs nopw 0x0(%rax,%rax,1)
  4014bd:	00 00 00 

00000000004014c0 <_dl_relocate_static_pie>:
  4014c0:	f3 0f 1e fa          	endbr64 
  4014c4:	c3                   	ret    
  4014c5:	66 2e 0f 1f 84 00 00 	cs nopw 0x0(%rax,%rax,1)
  4014cc:	00 00 00 
  4014cf:	90                   	nop

00000000004014d0 <deregister_tm_clones>:
  4014d0:	b8 b8 74 40 00       	mov    $0x4074b8,%eax
  4014d5:	48 3d b8 74 40 00    	cmp    $0x4074b8,%rax
  4014db:	74 13                	je     4014f0 <deregister_tm_clones+0x20>
  4014dd:	b8 00 00 00 00       	mov    $0x0,%eax
  4014e2:	48 85 c0             	test   %rax,%rax
  4014e5:	74 09                	je     4014f0 <deregister_tm_clones+0x20>
  4014e7:	bf b8 74 40 00       	mov    $0x4074b8,%edi
  4014ec:	ff e0                	jmp    *%rax
  4014ee:	66 90                	xchg   %ax,%ax
  4014f0:	c3                   	ret    
  4014f1:	66 66 2e 0f 1f 84 00 	data16 cs nopw 0x0(%rax,%rax,1)
  4014f8:	00 00 00 00 
  4014fc:	0f 1f 40 00          	nopl   0x0(%rax)

0000000000401500 <register_tm_clones>:
  401500:	be b8 74 40 00       	mov    $0x4074b8,%esi
  401505:	48 81 ee b8 74 40 00 	sub    $0x4074b8,%rsi
  40150c:	48 89 f0             	mov    %rsi,%rax
  40150f:	48 c1 ee 3f          	shr    $0x3f,%rsi
  401513:	48 c1 f8 03          	sar    $0x3,%rax
  401517:	48 01 c6             	add    %rax,%rsi
  40151a:	48 d1 fe             	sar    %rsi
  40151d:	74 11                	je     401530 <register_tm_clones+0x30>
  40151f:	b8 00 00 00 00       	mov    $0x0,%eax
  401524:	48 85 c0             	test   %rax,%rax
  401527:	74 07                	je     401530 <register_tm_clones+0x30>
  401529:	bf b8 74 40 00       	mov    $0x4074b8,%edi
  40152e:	ff e0                	jmp    *%rax
  401530:	c3                   	ret    
  401531:	66 66 2e 0f 1f 84 00 	data16 cs nopw 0x0(%rax,%rax,1)
  401538:	00 00 00 00 
  40153c:	0f 1f 40 00          	nopl   0x0(%rax)

0000000000401540 <__do_global_dtors_aux>:
  401540:	f3 0f 1e fa          	endbr64 
  401544:	80 3d bd 5f 00 00 00 	cmpb   $0x0,0x5fbd(%rip)        # 407508 <completed.0>
  40154b:	75 13                	jne    401560 <__do_global_dtors_aux+0x20>
  40154d:	55                   	push   %rbp
  40154e:	48 89 e5             	mov    %rsp,%rbp
  401551:	e8 7a ff ff ff       	call   4014d0 <deregister_tm_clones>
  401556:	c6 05 ab 5f 00 00 01 	movb   $0x1,0x5fab(%rip)        # 407508 <completed.0>
  40155d:	5d                   	pop    %rbp
  40155e:	c3                   	ret    
  40155f:	90                   	nop
  401560:	c3                   	ret    
  401561:	66 66 2e 0f 1f 84 00 	data16 cs nopw 0x0(%rax,%rax,1)
  401568:	00 00 00 00 
  40156c:	0f 1f 40 00          	nopl   0x0(%rax)

0000000000401570 <frame_dummy>:
  401570:	f3 0f 1e fa          	endbr64 
  401574:	eb 8a                	jmp    401500 <register_tm_clones>

0000000000401576 <usage>:
  401576:	50                   	push   %rax
  401577:	58                   	pop    %rax
  401578:	48 83 ec 08          	sub    $0x8,%rsp
  40157c:	48 89 fa             	mov    %rdi,%rdx
  40157f:	83 3d d2 5f 00 00 00 	cmpl   $0x0,0x5fd2(%rip)        # 407558 <is_checker>
  401586:	74 50                	je     4015d8 <usage+0x62>
  401588:	48 8d 35 79 2a 00 00 	lea    0x2a79(%rip),%rsi        # 404008 <_IO_stdin_used+0x8>
  40158f:	bf 01 00 00 00       	mov    $0x1,%edi
  401594:	b8 00 00 00 00       	mov    $0x0,%eax
  401599:	e8 42 fe ff ff       	call   4013e0 <__printf_chk@plt>
  40159e:	48 8d 3d 9b 2a 00 00 	lea    0x2a9b(%rip),%rdi        # 404040 <_IO_stdin_used+0x40>
  4015a5:	e8 16 fd ff ff       	call   4012c0 <puts@plt>
  4015aa:	48 8d 3d 07 2c 00 00 	lea    0x2c07(%rip),%rdi        # 4041b8 <_IO_stdin_used+0x1b8>
  4015b1:	e8 0a fd ff ff       	call   4012c0 <puts@plt>
  4015b6:	48 8d 3d ab 2a 00 00 	lea    0x2aab(%rip),%rdi        # 404068 <_IO_stdin_used+0x68>
  4015bd:	e8 fe fc ff ff       	call   4012c0 <puts@plt>
  4015c2:	48 8d 3d 09 2c 00 00 	lea    0x2c09(%rip),%rdi        # 4041d2 <_IO_stdin_used+0x1d2>
  4015c9:	e8 f2 fc ff ff       	call   4012c0 <puts@plt>
  4015ce:	bf 00 00 00 00       	mov    $0x0,%edi
  4015d3:	e8 58 fe ff ff       	call   401430 <exit@plt>
  4015d8:	48 8d 35 0f 2c 00 00 	lea    0x2c0f(%rip),%rsi        # 4041ee <_IO_stdin_used+0x1ee>
  4015df:	bf 01 00 00 00       	mov    $0x1,%edi
  4015e4:	b8 00 00 00 00       	mov    $0x0,%eax
  4015e9:	e8 f2 fd ff ff       	call   4013e0 <__printf_chk@plt>
  4015ee:	48 8d 3d 9b 2a 00 00 	lea    0x2a9b(%rip),%rdi        # 404090 <_IO_stdin_used+0x90>
  4015f5:	e8 c6 fc ff ff       	call   4012c0 <puts@plt>
  4015fa:	48 8d 3d b7 2a 00 00 	lea    0x2ab7(%rip),%rdi        # 4040b8 <_IO_stdin_used+0xb8>
  401601:	e8 ba fc ff ff       	call   4012c0 <puts@plt>
  401606:	48 8d 3d ff 2b 00 00 	lea    0x2bff(%rip),%rdi        # 40420c <_IO_stdin_used+0x20c>
  40160d:	e8 ae fc ff ff       	call   4012c0 <puts@plt>
  401612:	eb ba                	jmp    4015ce <usage+0x58>

0000000000401614 <initialize_target>:
  401614:	55                   	push   %rbp
  401615:	53                   	push   %rbx
  401616:	48 81 ec 00 10 00 00 	sub    $0x1000,%rsp
  40161d:	48 83 0c 24 00       	orq    $0x0,(%rsp)
  401622:	48 81 ec 00 10 00 00 	sub    $0x1000,%rsp
  401629:	48 83 0c 24 00       	orq    $0x0,(%rsp)
  40162e:	48 81 ec 18 01 00 00 	sub    $0x118,%rsp
  401635:	89 f5                	mov    %esi,%ebp
  401637:	64 48 8b 04 25 28 00 	mov    %fs:0x28,%rax
  40163e:	00 00 
  401640:	48 89 84 24 08 21 00 	mov    %rax,0x2108(%rsp)
  401647:	00 
  401648:	31 c0                	xor    %eax,%eax
  40164a:	89 3d f8 5e 00 00    	mov    %edi,0x5ef8(%rip)        # 407548 <check_level>
  401650:	8b 3d fa 5a 00 00    	mov    0x5afa(%rip),%edi        # 407150 <target_id>
  401656:	e8 b9 1e 00 00       	call   403514 <gencookie>
  40165b:	89 c7                	mov    %eax,%edi
  40165d:	89 05 f1 5e 00 00    	mov    %eax,0x5ef1(%rip)        # 407554 <cookie>
  401663:	e8 ac 1e 00 00       	call   403514 <gencookie>
  401668:	89 05 e2 5e 00 00    	mov    %eax,0x5ee2(%rip)        # 407550 <authkey>
  40166e:	8b 05 dc 5a 00 00    	mov    0x5adc(%rip),%eax        # 407150 <target_id>
  401674:	8d 78 01             	lea    0x1(%rax),%edi
  401677:	e8 04 fc ff ff       	call   401280 <srandom@plt>
  40167c:	e8 2f fd ff ff       	call   4013b0 <random@plt>
  401681:	89 c7                	mov    %eax,%edi
  401683:	e8 1f 03 00 00       	call   4019a7 <scramble>
  401688:	89 c3                	mov    %eax,%ebx
  40168a:	85 ed                	test   %ebp,%ebp
  40168c:	75 54                	jne    4016e2 <initialize_target+0xce>
  40168e:	b8 00 00 00 00       	mov    $0x0,%eax
  401693:	01 d8                	add    %ebx,%eax
  401695:	0f b7 c0             	movzwl %ax,%eax
  401698:	8d 04 c5 00 01 00 00 	lea    0x100(,%rax,8),%eax
  40169f:	89 c0                	mov    %eax,%eax
  4016a1:	48 89 05 08 5e 00 00 	mov    %rax,0x5e08(%rip)        # 4074b0 <buf_offset>
  4016a8:	c6 05 89 5e 00 00 63 	movb   $0x63,0x5e89(%rip)        # 407538 <target_prefix>
  4016af:	83 3d f2 5d 00 00 00 	cmpl   $0x0,0x5df2(%rip)        # 4074a8 <notify>
  4016b6:	74 09                	je     4016c1 <initialize_target+0xad>
  4016b8:	83 3d 99 5e 00 00 00 	cmpl   $0x0,0x5e99(%rip)        # 407558 <is_checker>
  4016bf:	74 39                	je     4016fa <initialize_target+0xe6>
  4016c1:	48 8b 84 24 08 21 00 	mov    0x2108(%rsp),%rax
  4016c8:	00 
  4016c9:	64 48 2b 04 25 28 00 	sub    %fs:0x28,%rax
  4016d0:	00 00 
  4016d2:	0f 85 da 00 00 00    	jne    4017b2 <initialize_target+0x19e>
  4016d8:	48 81 c4 18 21 00 00 	add    $0x2118,%rsp
  4016df:	5b                   	pop    %rbx
  4016e0:	5d                   	pop    %rbp
  4016e1:	c3                   	ret    
  4016e2:	bf 00 00 00 00       	mov    $0x0,%edi
  4016e7:	e8 b4 fc ff ff       	call   4013a0 <time@plt>
  4016ec:	89 c7                	mov    %eax,%edi
  4016ee:	e8 8d fb ff ff       	call   401280 <srandom@plt>
  4016f3:	e8 b8 fc ff ff       	call   4013b0 <random@plt>
  4016f8:	eb 99                	jmp    401693 <initialize_target+0x7f>
  4016fa:	48 89 e7             	mov    %rsp,%rdi
  4016fd:	be 00 01 00 00       	mov    $0x100,%esi
  401702:	e8 19 fd ff ff       	call   401420 <gethostname@plt>
  401707:	89 c5                	mov    %eax,%ebp
  401709:	85 c0                	test   %eax,%eax
  40170b:	75 26                	jne    401733 <initialize_target+0x11f>
  40170d:	89 c3                	mov    %eax,%ebx
  40170f:	48 63 c3             	movslq %ebx,%rax
  401712:	48 8d 15 67 5a 00 00 	lea    0x5a67(%rip),%rdx        # 407180 <host_table>
  401719:	48 8b 3c c2          	mov    (%rdx,%rax,8),%rdi
  40171d:	48 85 ff             	test   %rdi,%rdi
  401720:	74 2c                	je     40174e <initialize_target+0x13a>
  401722:	48 89 e6             	mov    %rsp,%rsi
  401725:	e8 36 fb ff ff       	call   401260 <strcasecmp@plt>
  40172a:	85 c0                	test   %eax,%eax
  40172c:	74 1b                	je     401749 <initialize_target+0x135>
  40172e:	83 c3 01             	add    $0x1,%ebx
  401731:	eb dc                	jmp    40170f <initialize_target+0xfb>
  401733:	48 8d 3d ae 29 00 00 	lea    0x29ae(%rip),%rdi        # 4040e8 <_IO_stdin_used+0xe8>
  40173a:	e8 81 fb ff ff       	call   4012c0 <puts@plt>
  40173f:	bf 08 00 00 00       	mov    $0x8,%edi
  401744:	e8 e7 fc ff ff       	call   401430 <exit@plt>
  401749:	bd 01 00 00 00       	mov    $0x1,%ebp
  40174e:	85 ed                	test   %ebp,%ebp
  401750:	74 3d                	je     40178f <initialize_target+0x17b>
  401752:	48 8d bc 24 00 01 00 	lea    0x100(%rsp),%rdi
  401759:	00 
  40175a:	e8 db 1a 00 00       	call   40323a <init_driver>
  40175f:	85 c0                	test   %eax,%eax
  401761:	0f 89 5a ff ff ff    	jns    4016c1 <initialize_target+0xad>
  401767:	48 8d 94 24 00 01 00 	lea    0x100(%rsp),%rdx
  40176e:	00 
  40176f:	48 8d 35 ea 29 00 00 	lea    0x29ea(%rip),%rsi        # 404160 <_IO_stdin_used+0x160>
  401776:	bf 01 00 00 00       	mov    $0x1,%edi
  40177b:	b8 00 00 00 00       	mov    $0x0,%eax
  401780:	e8 5b fc ff ff       	call   4013e0 <__printf_chk@plt>
  401785:	bf 08 00 00 00       	mov    $0x8,%edi
  40178a:	e8 a1 fc ff ff       	call   401430 <exit@plt>
  40178f:	48 89 e2             	mov    %rsp,%rdx
  401792:	48 8d 35 87 29 00 00 	lea    0x2987(%rip),%rsi        # 404120 <_IO_stdin_used+0x120>
  401799:	bf 01 00 00 00       	mov    $0x1,%edi
  40179e:	b8 00 00 00 00       	mov    $0x0,%eax
  4017a3:	e8 38 fc ff ff       	call   4013e0 <__printf_chk@plt>
  4017a8:	bf 08 00 00 00       	mov    $0x8,%edi
  4017ad:	e8 7e fc ff ff       	call   401430 <exit@plt>
  4017b2:	e8 39 fb ff ff       	call   4012f0 <__stack_chk_fail@plt>

00000000004017b7 <main>:
  4017b7:	f3 0f 1e fa          	endbr64 
  4017bb:	41 56                	push   %r14
  4017bd:	41 55                	push   %r13
  4017bf:	41 54                	push   %r12
  4017c1:	55                   	push   %rbp
  4017c2:	53                   	push   %rbx
  4017c3:	89 fd                	mov    %edi,%ebp
  4017c5:	48 89 f3             	mov    %rsi,%rbx
  4017c8:	48 c7 c6 2c 25 40 00 	mov    $0x40252c,%rsi
  4017cf:	bf 0b 00 00 00       	mov    $0xb,%edi
  4017d4:	e8 77 fb ff ff       	call   401350 <signal@plt>
  4017d9:	48 c7 c6 d2 24 40 00 	mov    $0x4024d2,%rsi
  4017e0:	bf 07 00 00 00       	mov    $0x7,%edi
  4017e5:	e8 66 fb ff ff       	call   401350 <signal@plt>
  4017ea:	48 c7 c6 86 25 40 00 	mov    $0x402586,%rsi
  4017f1:	bf 04 00 00 00       	mov    $0x4,%edi
  4017f6:	e8 55 fb ff ff       	call   401350 <signal@plt>
  4017fb:	83 3d 56 5d 00 00 00 	cmpl   $0x0,0x5d56(%rip)        # 407558 <is_checker>
  401802:	75 26                	jne    40182a <main+0x73>
  401804:	4c 8d 25 1a 2a 00 00 	lea    0x2a1a(%rip),%r12        # 404225 <_IO_stdin_used+0x225>
  40180b:	48 8b 05 ae 5c 00 00 	mov    0x5cae(%rip),%rax        # 4074c0 <stdin@GLIBC_2.2.5>
  401812:	48 89 05 27 5d 00 00 	mov    %rax,0x5d27(%rip)        # 407540 <infile>
  401819:	41 bd 00 00 00 00    	mov    $0x0,%r13d
  40181f:	41 be 00 00 00 00    	mov    $0x0,%r14d
  401825:	e9 8d 00 00 00       	jmp    4018b7 <main+0x100>
  40182a:	48 c7 c6 e0 25 40 00 	mov    $0x4025e0,%rsi
  401831:	bf 0e 00 00 00       	mov    $0xe,%edi
  401836:	e8 15 fb ff ff       	call   401350 <signal@plt>
  40183b:	bf 05 00 00 00       	mov    $0x5,%edi
  401840:	e8 db fa ff ff       	call   401320 <alarm@plt>
  401845:	4c 8d 25 de 29 00 00 	lea    0x29de(%rip),%r12        # 40422a <_IO_stdin_used+0x22a>
  40184c:	eb bd                	jmp    40180b <main+0x54>
  40184e:	48 8b 3b             	mov    (%rbx),%rdi
  401851:	e8 20 fd ff ff       	call   401576 <usage>
  401856:	48 8d 35 20 2c 00 00 	lea    0x2c20(%rip),%rsi        # 40447d <_IO_stdin_used+0x47d>
  40185d:	48 8b 3d 7c 5c 00 00 	mov    0x5c7c(%rip),%rdi        # 4074e0 <optarg@GLIBC_2.2.5>
  401864:	e8 87 fb ff ff       	call   4013f0 <fopen@plt>
  401869:	48 89 05 d0 5c 00 00 	mov    %rax,0x5cd0(%rip)        # 407540 <infile>
  401870:	48 85 c0             	test   %rax,%rax
  401873:	75 42                	jne    4018b7 <main+0x100>
  401875:	48 8b 0d 64 5c 00 00 	mov    0x5c64(%rip),%rcx        # 4074e0 <optarg@GLIBC_2.2.5>
  40187c:	48 8d 15 af 29 00 00 	lea    0x29af(%rip),%rdx        # 404232 <_IO_stdin_used+0x232>
  401883:	be 01 00 00 00       	mov    $0x1,%esi
  401888:	48 8b 3d 71 5c 00 00 	mov    0x5c71(%rip),%rdi        # 407500 <stderr@GLIBC_2.2.5>
  40188f:	e8 bc fb ff ff       	call   401450 <__fprintf_chk@plt>
  401894:	b8 01 00 00 00       	mov    $0x1,%eax
  401899:	e9 db 00 00 00       	jmp    401979 <main+0x1c2>
  40189e:	ba 10 00 00 00       	mov    $0x10,%edx
  4018a3:	be 00 00 00 00       	mov    $0x0,%esi
  4018a8:	48 8b 3d 31 5c 00 00 	mov    0x5c31(%rip),%rdi        # 4074e0 <optarg@GLIBC_2.2.5>
  4018af:	e8 5c fb ff ff       	call   401410 <strtoul@plt>
  4018b4:	41 89 c6             	mov    %eax,%r14d
  4018b7:	4c 89 e2             	mov    %r12,%rdx
  4018ba:	48 89 de             	mov    %rbx,%rsi
  4018bd:	89 ef                	mov    %ebp,%edi
  4018bf:	e8 3c fb ff ff       	call   401400 <getopt@plt>
  4018c4:	3c ff                	cmp    $0xff,%al
  4018c6:	74 65                	je     40192d <main+0x176>
  4018c8:	0f be c8             	movsbl %al,%ecx
  4018cb:	83 e8 61             	sub    $0x61,%eax
  4018ce:	3c 10                	cmp    $0x10,%al
  4018d0:	77 3b                	ja     40190d <main+0x156>
  4018d2:	0f b6 c0             	movzbl %al,%eax
  4018d5:	48 8d 15 94 29 00 00 	lea    0x2994(%rip),%rdx        # 404270 <_IO_stdin_used+0x270>
  4018dc:	48 63 04 82          	movslq (%rdx,%rax,4),%rax
  4018e0:	48 01 d0             	add    %rdx,%rax
  4018e3:	3e ff e0             	notrack jmp *%rax
  4018e6:	ba 0a 00 00 00       	mov    $0xa,%edx
  4018eb:	be 00 00 00 00       	mov    $0x0,%esi
  4018f0:	48 8b 3d e9 5b 00 00 	mov    0x5be9(%rip),%rdi        # 4074e0 <optarg@GLIBC_2.2.5>
  4018f7:	e8 84 fa ff ff       	call   401380 <strtol@plt>
  4018fc:	41 89 c5             	mov    %eax,%r13d
  4018ff:	eb b6                	jmp    4018b7 <main+0x100>
  401901:	c7 05 9d 5b 00 00 00 	movl   $0x0,0x5b9d(%rip)        # 4074a8 <notify>
  401908:	00 00 00 
  40190b:	eb aa                	jmp    4018b7 <main+0x100>
  40190d:	89 ca                	mov    %ecx,%edx
  40190f:	48 8d 35 39 29 00 00 	lea    0x2939(%rip),%rsi        # 40424f <_IO_stdin_used+0x24f>
  401916:	bf 01 00 00 00       	mov    $0x1,%edi
  40191b:	b8 00 00 00 00       	mov    $0x0,%eax
  401920:	e8 bb fa ff ff       	call   4013e0 <__printf_chk@plt>
  401925:	48 8b 3b             	mov    (%rbx),%rdi
  401928:	e8 49 fc ff ff       	call   401576 <usage>
  40192d:	be 00 00 00 00       	mov    $0x0,%esi
  401932:	44 89 ef             	mov    %r13d,%edi
  401935:	e8 da fc ff ff       	call   401614 <initialize_target>
  40193a:	83 3d 17 5c 00 00 00 	cmpl   $0x0,0x5c17(%rip)        # 407558 <is_checker>
  401941:	74 09                	je     40194c <main+0x195>
  401943:	44 39 35 06 5c 00 00 	cmp    %r14d,0x5c06(%rip)        # 407550 <authkey>
  40194a:	75 36                	jne    401982 <main+0x1cb>
  40194c:	8b 15 02 5c 00 00    	mov    0x5c02(%rip),%edx        # 407554 <cookie>
  401952:	48 8d 35 09 29 00 00 	lea    0x2909(%rip),%rsi        # 404262 <_IO_stdin_used+0x262>
  401959:	bf 01 00 00 00       	mov    $0x1,%edi
  40195e:	b8 00 00 00 00       	mov    $0x0,%eax
  401963:	e8 78 fa ff ff       	call   4013e0 <__printf_chk@plt>
  401968:	48 8b 3d 41 5b 00 00 	mov    0x5b41(%rip),%rdi        # 4074b0 <buf_offset>
  40196f:	e8 bb 0d 00 00       	call   40272f <stable_launch>
  401974:	b8 00 00 00 00       	mov    $0x0,%eax
  401979:	5b                   	pop    %rbx
  40197a:	5d                   	pop    %rbp
  40197b:	41 5c                	pop    %r12
  40197d:	41 5d                	pop    %r13
  40197f:	41 5e                	pop    %r14
  401981:	c3                   	ret    
  401982:	44 89 f2             	mov    %r14d,%edx
  401985:	48 8d 35 fc 27 00 00 	lea    0x27fc(%rip),%rsi        # 404188 <_IO_stdin_used+0x188>
  40198c:	bf 01 00 00 00       	mov    $0x1,%edi
  401991:	b8 00 00 00 00       	mov    $0x0,%eax
  401996:	e8 45 fa ff ff       	call   4013e0 <__printf_chk@plt>
  40199b:	b8 00 00 00 00       	mov    $0x0,%eax
  4019a0:	e8 6d 07 00 00       	call   402112 <check_fail>
  4019a5:	eb a5                	jmp    40194c <main+0x195>

00000000004019a7 <scramble>:
  4019a7:	f3 0f 1e fa          	endbr64 
  4019ab:	48 83 ec 38          	sub    $0x38,%rsp
  4019af:	64 48 8b 04 25 28 00 	mov    %fs:0x28,%rax
  4019b6:	00 00 
  4019b8:	48 89 44 24 28       	mov    %rax,0x28(%rsp)
  4019bd:	31 c0                	xor    %eax,%eax
  4019bf:	eb 10                	jmp    4019d1 <scramble+0x2a>
  4019c1:	69 d0 55 e0 00 00    	imul   $0xe055,%eax,%edx
  4019c7:	01 fa                	add    %edi,%edx
  4019c9:	89 c1                	mov    %eax,%ecx
  4019cb:	89 14 8c             	mov    %edx,(%rsp,%rcx,4)
  4019ce:	83 c0 01             	add    $0x1,%eax
  4019d1:	83 f8 09             	cmp    $0x9,%eax
  4019d4:	76 eb                	jbe    4019c1 <scramble+0x1a>
  4019d6:	8b 44 24 1c          	mov    0x1c(%rsp),%eax
  4019da:	69 c0 50 12 00 00    	imul   $0x1250,%eax,%eax
  4019e0:	89 44 24 1c          	mov    %eax,0x1c(%rsp)
  4019e4:	8b 04 24             	mov    (%rsp),%eax
  4019e7:	69 c0 21 0b 00 00    	imul   $0xb21,%eax,%eax
  4019ed:	89 04 24             	mov    %eax,(%rsp)
  4019f0:	8b 44 24 0c          	mov    0xc(%rsp),%eax
  4019f4:	69 c0 89 2e 00 00    	imul   $0x2e89,%eax,%eax
  4019fa:	89 44 24 0c          	mov    %eax,0xc(%rsp)
  4019fe:	8b 44 24 10          	mov    0x10(%rsp),%eax
  401a02:	69 c0 bc 2b 00 00    	imul   $0x2bbc,%eax,%eax
  401a08:	89 44 24 10          	mov    %eax,0x10(%rsp)
  401a0c:	8b 04 24             	mov    (%rsp),%eax
  401a0f:	69 c0 b6 db 00 00    	imul   $0xdbb6,%eax,%eax
  401a15:	89 04 24             	mov    %eax,(%rsp)
  401a18:	8b 44 24 1c          	mov    0x1c(%rsp),%eax
  401a1c:	69 c0 84 e0 00 00    	imul   $0xe084,%eax,%eax
  401a22:	89 44 24 1c          	mov    %eax,0x1c(%rsp)
  401a26:	8b 44 24 1c          	mov    0x1c(%rsp),%eax
  401a2a:	69 c0 48 3c 00 00    	imul   $0x3c48,%eax,%eax
  401a30:	89 44 24 1c          	mov    %eax,0x1c(%rsp)
  401a34:	8b 44 24 20          	mov    0x20(%rsp),%eax
  401a38:	69 c0 d3 05 00 00    	imul   $0x5d3,%eax,%eax
  401a3e:	89 44 24 20          	mov    %eax,0x20(%rsp)
  401a42:	8b 44 24 18          	mov    0x18(%rsp),%eax
  401a46:	69 c0 b8 e2 00 00    	imul   $0xe2b8,%eax,%eax
  401a4c:	89 44 24 18          	mov    %eax,0x18(%rsp)
  401a50:	8b 44 24 14          	mov    0x14(%rsp),%eax
  401a54:	69 c0 ef 54 00 00    	imul   $0x54ef,%eax,%eax
  401a5a:	89 44 24 14          	mov    %eax,0x14(%rsp)
  401a5e:	8b 44 24 10          	mov    0x10(%rsp),%eax
  401a62:	69 c0 29 ed 00 00    	imul   $0xed29,%eax,%eax
  401a68:	89 44 24 10          	mov    %eax,0x10(%rsp)
  401a6c:	8b 44 24 18          	mov    0x18(%rsp),%eax
  401a70:	69 c0 36 83 00 00    	imul   $0x8336,%eax,%eax
  401a76:	89 44 24 18          	mov    %eax,0x18(%rsp)
  401a7a:	8b 44 24 1c          	mov    0x1c(%rsp),%eax
  401a7e:	69 c0 c1 87 00 00    	imul   $0x87c1,%eax,%eax
  401a84:	89 44 24 1c          	mov    %eax,0x1c(%rsp)
  401a88:	8b 44 24 20          	mov    0x20(%rsp),%eax
  401a8c:	69 c0 f3 2f 00 00    	imul   $0x2ff3,%eax,%eax
  401a92:	89 44 24 20          	mov    %eax,0x20(%rsp)
  401a96:	8b 44 24 14          	mov    0x14(%rsp),%eax
  401a9a:	69 c0 c0 e8 00 00    	imul   $0xe8c0,%eax,%eax
  401aa0:	89 44 24 14          	mov    %eax,0x14(%rsp)
  401aa4:	8b 44 24 10          	mov    0x10(%rsp),%eax
  401aa8:	69 c0 6b 6a 00 00    	imul   $0x6a6b,%eax,%eax
  401aae:	89 44 24 10          	mov    %eax,0x10(%rsp)
  401ab2:	8b 44 24 14          	mov    0x14(%rsp),%eax
  401ab6:	69 c0 98 7b 00 00    	imul   $0x7b98,%eax,%eax
  401abc:	89 44 24 14          	mov    %eax,0x14(%rsp)
  401ac0:	8b 44 24 20          	mov    0x20(%rsp),%eax
  401ac4:	69 c0 7e 5e 00 00    	imul   $0x5e7e,%eax,%eax
  401aca:	89 44 24 20          	mov    %eax,0x20(%rsp)
  401ace:	8b 44 24 20          	mov    0x20(%rsp),%eax
  401ad2:	69 c0 e6 80 00 00    	imul   $0x80e6,%eax,%eax
  401ad8:	89 44 24 20          	mov    %eax,0x20(%rsp)
  401adc:	8b 44 24 24          	mov    0x24(%rsp),%eax
  401ae0:	69 c0 92 c1 00 00    	imul   $0xc192,%eax,%eax
  401ae6:	89 44 24 24          	mov    %eax,0x24(%rsp)
  401aea:	8b 44 24 10          	mov    0x10(%rsp),%eax
  401aee:	69 c0 6c d2 00 00    	imul   $0xd26c,%eax,%eax
  401af4:	89 44 24 10          	mov    %eax,0x10(%rsp)
  401af8:	8b 44 24 04          	mov    0x4(%rsp),%eax
  401afc:	69 c0 4a 65 00 00    	imul   $0x654a,%eax,%eax
  401b02:	89 44 24 04          	mov    %eax,0x4(%rsp)
  401b06:	8b 44 24 08          	mov    0x8(%rsp),%eax
  401b0a:	69 c0 19 79 00 00    	imul   $0x7919,%eax,%eax
  401b10:	89 44 24 08          	mov    %eax,0x8(%rsp)
  401b14:	8b 44 24 18          	mov    0x18(%rsp),%eax
  401b18:	69 c0 49 87 00 00    	imul   $0x8749,%eax,%eax
  401b1e:	89 44 24 18          	mov    %eax,0x18(%rsp)
  401b22:	8b 44 24 08          	mov    0x8(%rsp),%eax
  401b26:	69 c0 b6 f5 00 00    	imul   $0xf5b6,%eax,%eax
  401b2c:	89 44 24 08          	mov    %eax,0x8(%rsp)
  401b30:	8b 44 24 0c          	mov    0xc(%rsp),%eax
  401b34:	69 c0 2d 56 00 00    	imul   $0x562d,%eax,%eax
  401b3a:	89 44 24 0c          	mov    %eax,0xc(%rsp)
  401b3e:	8b 44 24 24          	mov    0x24(%rsp),%eax
  401b42:	69 c0 87 a4 00 00    	imul   $0xa487,%eax,%eax
  401b48:	89 44 24 24          	mov    %eax,0x24(%rsp)
  401b4c:	8b 04 24             	mov    (%rsp),%eax
  401b4f:	69 c0 79 0e 00 00    	imul   $0xe79,%eax,%eax
  401b55:	89 04 24             	mov    %eax,(%rsp)
  401b58:	8b 44 24 0c          	mov    0xc(%rsp),%eax
  401b5c:	69 c0 e1 83 00 00    	imul   $0x83e1,%eax,%eax
  401b62:	89 44 24 0c          	mov    %eax,0xc(%rsp)
  401b66:	8b 44 24 14          	mov    0x14(%rsp),%eax
  401b6a:	69 c0 5e b6 00 00    	imul   $0xb65e,%eax,%eax
  401b70:	89 44 24 14          	mov    %eax,0x14(%rsp)
  401b74:	8b 44 24 18          	mov    0x18(%rsp),%eax
  401b78:	69 c0 48 4d 00 00    	imul   $0x4d48,%eax,%eax
  401b7e:	89 44 24 18          	mov    %eax,0x18(%rsp)
  401b82:	8b 44 24 10          	mov    0x10(%rsp),%eax
  401b86:	69 c0 b1 67 00 00    	imul   $0x67b1,%eax,%eax
  401b8c:	89 44 24 10          	mov    %eax,0x10(%rsp)
  401b90:	8b 44 24 0c          	mov    0xc(%rsp),%eax
  401b94:	69 c0 57 96 00 00    	imul   $0x9657,%eax,%eax
  401b9a:	89 44 24 0c          	mov    %eax,0xc(%rsp)
  401b9e:	8b 44 24 0c          	mov    0xc(%rsp),%eax
  401ba2:	69 c0 02 73 00 00    	imul   $0x7302,%eax,%eax
  401ba8:	89 44 24 0c          	mov    %eax,0xc(%rsp)
  401bac:	8b 44 24 1c          	mov    0x1c(%rsp),%eax
  401bb0:	69 c0 69 50 00 00    	imul   $0x5069,%eax,%eax
  401bb6:	89 44 24 1c          	mov    %eax,0x1c(%rsp)
  401bba:	8b 44 24 0c          	mov    0xc(%rsp),%eax
  401bbe:	69 c0 da 73 00 00    	imul   $0x73da,%eax,%eax
  401bc4:	89 44 24 0c          	mov    %eax,0xc(%rsp)
  401bc8:	8b 44 24 04          	mov    0x4(%rsp),%eax
  401bcc:	69 c0 ab d6 00 00    	imul   $0xd6ab,%eax,%eax
  401bd2:	89 44 24 04          	mov    %eax,0x4(%rsp)
  401bd6:	8b 44 24 1c          	mov    0x1c(%rsp),%eax
  401bda:	69 c0 8a 31 00 00    	imul   $0x318a,%eax,%eax
  401be0:	89 44 24 1c          	mov    %eax,0x1c(%rsp)
  401be4:	8b 44 24 18          	mov    0x18(%rsp),%eax
  401be8:	69 c0 43 44 00 00    	imul   $0x4443,%eax,%eax
  401bee:	89 44 24 18          	mov    %eax,0x18(%rsp)
  401bf2:	8b 44 24 14          	mov    0x14(%rsp),%eax
  401bf6:	69 c0 97 ab 00 00    	imul   $0xab97,%eax,%eax
  401bfc:	89 44 24 14          	mov    %eax,0x14(%rsp)
  401c00:	8b 44 24 10          	mov    0x10(%rsp),%eax
  401c04:	69 c0 0c 95 00 00    	imul   $0x950c,%eax,%eax
  401c0a:	89 44 24 10          	mov    %eax,0x10(%rsp)
  401c0e:	8b 44 24 1c          	mov    0x1c(%rsp),%eax
  401c12:	69 c0 d8 1c 00 00    	imul   $0x1cd8,%eax,%eax
  401c18:	89 44 24 1c          	mov    %eax,0x1c(%rsp)
  401c1c:	8b 44 24 04          	mov    0x4(%rsp),%eax
  401c20:	69 c0 27 db 00 00    	imul   $0xdb27,%eax,%eax
  401c26:	89 44 24 04          	mov    %eax,0x4(%rsp)
  401c2a:	8b 44 24 10          	mov    0x10(%rsp),%eax
  401c2e:	69 c0 dc 65 00 00    	imul   $0x65dc,%eax,%eax
  401c34:	89 44 24 10          	mov    %eax,0x10(%rsp)
  401c38:	8b 44 24 18          	mov    0x18(%rsp),%eax
  401c3c:	69 c0 be 69 00 00    	imul   $0x69be,%eax,%eax
  401c42:	89 44 24 18          	mov    %eax,0x18(%rsp)
  401c46:	8b 44 24 20          	mov    0x20(%rsp),%eax
  401c4a:	69 c0 a9 cb 00 00    	imul   $0xcba9,%eax,%eax
  401c50:	89 44 24 20          	mov    %eax,0x20(%rsp)
  401c54:	8b 04 24             	mov    (%rsp),%eax
  401c57:	69 c0 04 3d 00 00    	imul   $0x3d04,%eax,%eax
  401c5d:	89 04 24             	mov    %eax,(%rsp)
  401c60:	8b 44 24 14          	mov    0x14(%rsp),%eax
  401c64:	69 c0 e7 7f 00 00    	imul   $0x7fe7,%eax,%eax
  401c6a:	89 44 24 14          	mov    %eax,0x14(%rsp)
  401c6e:	8b 44 24 24          	mov    0x24(%rsp),%eax
  401c72:	69 c0 89 f9 00 00    	imul   $0xf989,%eax,%eax
  401c78:	89 44 24 24          	mov    %eax,0x24(%rsp)
  401c7c:	8b 44 24 20          	mov    0x20(%rsp),%eax
  401c80:	69 c0 99 ea 00 00    	imul   $0xea99,%eax,%eax
  401c86:	89 44 24 20          	mov    %eax,0x20(%rsp)
  401c8a:	8b 44 24 14          	mov    0x14(%rsp),%eax
  401c8e:	69 c0 7e 27 00 00    	imul   $0x277e,%eax,%eax
  401c94:	89 44 24 14          	mov    %eax,0x14(%rsp)
  401c98:	8b 44 24 08          	mov    0x8(%rsp),%eax
  401c9c:	69 c0 c8 6c 00 00    	imul   $0x6cc8,%eax,%eax
  401ca2:	89 44 24 08          	mov    %eax,0x8(%rsp)
  401ca6:	8b 44 24 20          	mov    0x20(%rsp),%eax
  401caa:	69 c0 98 37 00 00    	imul   $0x3798,%eax,%eax
  401cb0:	89 44 24 20          	mov    %eax,0x20(%rsp)
  401cb4:	8b 44 24 0c          	mov    0xc(%rsp),%eax
  401cb8:	69 c0 ef 4d 00 00    	imul   $0x4def,%eax,%eax
  401cbe:	89 44 24 0c          	mov    %eax,0xc(%rsp)
  401cc2:	8b 44 24 08          	mov    0x8(%rsp),%eax
  401cc6:	69 c0 26 57 00 00    	imul   $0x5726,%eax,%eax
  401ccc:	89 44 24 08          	mov    %eax,0x8(%rsp)
  401cd0:	8b 44 24 14          	mov    0x14(%rsp),%eax
  401cd4:	69 c0 d4 b5 00 00    	imul   $0xb5d4,%eax,%eax
  401cda:	89 44 24 14          	mov    %eax,0x14(%rsp)
  401cde:	8b 04 24             	mov    (%rsp),%eax
  401ce1:	69 c0 4a fb 00 00    	imul   $0xfb4a,%eax,%eax
  401ce7:	89 04 24             	mov    %eax,(%rsp)
  401cea:	8b 44 24 0c          	mov    0xc(%rsp),%eax
  401cee:	69 c0 c6 25 00 00    	imul   $0x25c6,%eax,%eax
  401cf4:	89 44 24 0c          	mov    %eax,0xc(%rsp)
  401cf8:	8b 04 24             	mov    (%rsp),%eax
  401cfb:	69 c0 fe fd 00 00    	imul   $0xfdfe,%eax,%eax
  401d01:	89 04 24             	mov    %eax,(%rsp)
  401d04:	8b 04 24             	mov    (%rsp),%eax
  401d07:	69 c0 7a 35 00 00    	imul   $0x357a,%eax,%eax
  401d0d:	89 04 24             	mov    %eax,(%rsp)
  401d10:	8b 44 24 04          	mov    0x4(%rsp),%eax
  401d14:	69 c0 dd a7 00 00    	imul   $0xa7dd,%eax,%eax
  401d1a:	89 44 24 04          	mov    %eax,0x4(%rsp)
  401d1e:	8b 44 24 0c          	mov    0xc(%rsp),%eax
  401d22:	69 c0 c3 1e 00 00    	imul   $0x1ec3,%eax,%eax
  401d28:	89 44 24 0c          	mov    %eax,0xc(%rsp)
  401d2c:	8b 44 24 10          	mov    0x10(%rsp),%eax
  401d30:	69 c0 7e 34 00 00    	imul   $0x347e,%eax,%eax
  401d36:	89 44 24 10          	mov    %eax,0x10(%rsp)
  401d3a:	8b 44 24 24          	mov    0x24(%rsp),%eax
  401d3e:	69 c0 3d b8 00 00    	imul   $0xb83d,%eax,%eax
  401d44:	89 44 24 24          	mov    %eax,0x24(%rsp)
  401d48:	8b 44 24 08          	mov    0x8(%rsp),%eax
  401d4c:	69 c0 93 91 00 00    	imul   $0x9193,%eax,%eax
  401d52:	89 44 24 08          	mov    %eax,0x8(%rsp)
  401d56:	8b 44 24 10          	mov    0x10(%rsp),%eax
  401d5a:	69 c0 fa 77 00 00    	imul   $0x77fa,%eax,%eax
  401d60:	89 44 24 10          	mov    %eax,0x10(%rsp)
  401d64:	8b 44 24 10          	mov    0x10(%rsp),%eax
  401d68:	69 c0 49 01 00 00    	imul   $0x149,%eax,%eax
  401d6e:	89 44 24 10          	mov    %eax,0x10(%rsp)
  401d72:	8b 44 24 18          	mov    0x18(%rsp),%eax
  401d76:	69 c0 3c b7 00 00    	imul   $0xb73c,%eax,%eax
  401d7c:	89 44 24 18          	mov    %eax,0x18(%rsp)
  401d80:	8b 44 24 1c          	mov    0x1c(%rsp),%eax
  401d84:	69 c0 14 83 00 00    	imul   $0x8314,%eax,%eax
  401d8a:	89 44 24 1c          	mov    %eax,0x1c(%rsp)
  401d8e:	8b 44 24 24          	mov    0x24(%rsp),%eax
  401d92:	69 c0 bd b4 00 00    	imul   $0xb4bd,%eax,%eax
  401d98:	89 44 24 24          	mov    %eax,0x24(%rsp)
  401d9c:	8b 04 24             	mov    (%rsp),%eax
  401d9f:	69 c0 b1 fe 00 00    	imul   $0xfeb1,%eax,%eax
  401da5:	89 04 24             	mov    %eax,(%rsp)
  401da8:	8b 44 24 24          	mov    0x24(%rsp),%eax
  401dac:	69 c0 6e c6 00 00    	imul   $0xc66e,%eax,%eax
  401db2:	89 44 24 24          	mov    %eax,0x24(%rsp)
  401db6:	8b 44 24 20          	mov    0x20(%rsp),%eax
  401dba:	69 c0 3e 3d 00 00    	imul   $0x3d3e,%eax,%eax
  401dc0:	89 44 24 20          	mov    %eax,0x20(%rsp)
  401dc4:	8b 44 24 10          	mov    0x10(%rsp),%eax
  401dc8:	69 c0 6c d0 00 00    	imul   $0xd06c,%eax,%eax
  401dce:	89 44 24 10          	mov    %eax,0x10(%rsp)
  401dd2:	8b 44 24 18          	mov    0x18(%rsp),%eax
  401dd6:	69 c0 d7 77 00 00    	imul   $0x77d7,%eax,%eax
  401ddc:	89 44 24 18          	mov    %eax,0x18(%rsp)
  401de0:	8b 04 24             	mov    (%rsp),%eax
  401de3:	69 c0 f9 a2 00 00    	imul   $0xa2f9,%eax,%eax
  401de9:	89 04 24             	mov    %eax,(%rsp)
  401dec:	8b 44 24 18          	mov    0x18(%rsp),%eax
  401df0:	69 c0 0a 07 00 00    	imul   $0x70a,%eax,%eax
  401df6:	89 44 24 18          	mov    %eax,0x18(%rsp)
  401dfa:	8b 44 24 10          	mov    0x10(%rsp),%eax
  401dfe:	69 c0 95 04 00 00    	imul   $0x495,%eax,%eax
  401e04:	89 44 24 10          	mov    %eax,0x10(%rsp)
  401e08:	8b 44 24 18          	mov    0x18(%rsp),%eax
  401e0c:	69 c0 66 60 00 00    	imul   $0x6066,%eax,%eax
  401e12:	89 44 24 18          	mov    %eax,0x18(%rsp)
  401e16:	8b 44 24 1c          	mov    0x1c(%rsp),%eax
  401e1a:	69 c0 8f 69 00 00    	imul   $0x698f,%eax,%eax
  401e20:	89 44 24 1c          	mov    %eax,0x1c(%rsp)
  401e24:	8b 44 24 1c          	mov    0x1c(%rsp),%eax
  401e28:	69 c0 a8 5f 00 00    	imul   $0x5fa8,%eax,%eax
  401e2e:	89 44 24 1c          	mov    %eax,0x1c(%rsp)
  401e32:	8b 44 24 20          	mov    0x20(%rsp),%eax
  401e36:	69 c0 0b ab 00 00    	imul   $0xab0b,%eax,%eax
  401e3c:	89 44 24 20          	mov    %eax,0x20(%rsp)
  401e40:	8b 44 24 04          	mov    0x4(%rsp),%eax
  401e44:	69 c0 4b c6 00 00    	imul   $0xc64b,%eax,%eax
  401e4a:	89 44 24 04          	mov    %eax,0x4(%rsp)
  401e4e:	8b 44 24 18          	mov    0x18(%rsp),%eax
  401e52:	69 c0 d4 99 00 00    	imul   $0x99d4,%eax,%eax
  401e58:	89 44 24 18          	mov    %eax,0x18(%rsp)
  401e5c:	b8 00 00 00 00       	mov    $0x0,%eax
  401e61:	ba 00 00 00 00       	mov    $0x0,%edx
  401e66:	eb 0a                	jmp    401e72 <scramble+0x4cb>
  401e68:	89 c1                	mov    %eax,%ecx
  401e6a:	8b 0c 8c             	mov    (%rsp,%rcx,4),%ecx
  401e6d:	01 ca                	add    %ecx,%edx
  401e6f:	83 c0 01             	add    $0x1,%eax
  401e72:	83 f8 09             	cmp    $0x9,%eax
  401e75:	76 f1                	jbe    401e68 <scramble+0x4c1>
  401e77:	48 8b 44 24 28       	mov    0x28(%rsp),%rax
  401e7c:	64 48 2b 04 25 28 00 	sub    %fs:0x28,%rax
  401e83:	00 00 
  401e85:	75 07                	jne    401e8e <scramble+0x4e7>
  401e87:	89 d0                	mov    %edx,%eax
  401e89:	48 83 c4 38          	add    $0x38,%rsp
  401e8d:	c3                   	ret    
  401e8e:	e8 5d f4 ff ff       	call   4012f0 <__stack_chk_fail@plt>

0000000000401e93 <getbuf>:
  401e93:	f3 0f 1e fa          	endbr64 
  401e97:	48 83 ec 38          	sub    $0x38,%rsp
  401e9b:	48 89 e7             	mov    %rsp,%rdi
  401e9e:	e8 ad 02 00 00       	call   402150 <Gets>
  401ea3:	b8 01 00 00 00       	mov    $0x1,%eax
  401ea8:	48 83 c4 38          	add    $0x38,%rsp
  401eac:	c3                   	ret    

0000000000401ead <touch1>:
  401ead:	f3 0f 1e fa          	endbr64 
  401eb1:	50                   	push   %rax
  401eb2:	58                   	pop    %rax
  401eb3:	48 83 ec 08          	sub    $0x8,%rsp
  401eb7:	c7 05 8b 56 00 00 01 	movl   $0x1,0x568b(%rip)        # 40754c <vlevel>
  401ebe:	00 00 00 
  401ec1:	48 8d 3d 0e 24 00 00 	lea    0x240e(%rip),%rdi        # 4042d6 <_IO_stdin_used+0x2d6>
  401ec8:	e8 f3 f3 ff ff       	call   4012c0 <puts@plt>
  401ecd:	bf 01 00 00 00       	mov    $0x1,%edi
  401ed2:	e8 fb 04 00 00       	call   4023d2 <validate>
  401ed7:	bf 00 00 00 00       	mov    $0x0,%edi
  401edc:	e8 4f f5 ff ff       	call   401430 <exit@plt>

0000000000401ee1 <touch2>:
  401ee1:	f3 0f 1e fa          	endbr64 
  401ee5:	50                   	push   %rax
  401ee6:	58                   	pop    %rax
  401ee7:	48 83 ec 08          	sub    $0x8,%rsp
  401eeb:	89 fa                	mov    %edi,%edx
  401eed:	c7 05 55 56 00 00 02 	movl   $0x2,0x5655(%rip)        # 40754c <vlevel>
  401ef4:	00 00 00 
  401ef7:	39 3d 57 56 00 00    	cmp    %edi,0x5657(%rip)        # 407554 <cookie>
  401efd:	74 2a                	je     401f29 <touch2+0x48>
  401eff:	48 8d 35 1a 24 00 00 	lea    0x241a(%rip),%rsi        # 404320 <_IO_stdin_used+0x320>
  401f06:	bf 01 00 00 00       	mov    $0x1,%edi
  401f0b:	b8 00 00 00 00       	mov    $0x0,%eax
  401f10:	e8 cb f4 ff ff       	call   4013e0 <__printf_chk@plt>
  401f15:	bf 02 00 00 00       	mov    $0x2,%edi
  401f1a:	e8 87 05 00 00       	call   4024a6 <fail>
  401f1f:	bf 00 00 00 00       	mov    $0x0,%edi
  401f24:	e8 07 f5 ff ff       	call   401430 <exit@plt>
  401f29:	48 8d 35 c8 23 00 00 	lea    0x23c8(%rip),%rsi        # 4042f8 <_IO_stdin_used+0x2f8>
  401f30:	bf 01 00 00 00       	mov    $0x1,%edi
  401f35:	b8 00 00 00 00       	mov    $0x0,%eax
  401f3a:	e8 a1 f4 ff ff       	call   4013e0 <__printf_chk@plt>
  401f3f:	bf 02 00 00 00       	mov    $0x2,%edi
  401f44:	e8 89 04 00 00       	call   4023d2 <validate>
  401f49:	eb d4                	jmp    401f1f <touch2+0x3e>

0000000000401f4b <hexmatch>:
  401f4b:	f3 0f 1e fa          	endbr64 
  401f4f:	41 54                	push   %r12
  401f51:	55                   	push   %rbp
  401f52:	53                   	push   %rbx
  401f53:	48 83 c4 80          	add    $0xffffffffffffff80,%rsp
  401f57:	89 fd                	mov    %edi,%ebp
  401f59:	48 89 f3             	mov    %rsi,%rbx
  401f5c:	64 48 8b 04 25 28 00 	mov    %fs:0x28,%rax
  401f63:	00 00 
  401f65:	48 89 44 24 78       	mov    %rax,0x78(%rsp)
  401f6a:	31 c0                	xor    %eax,%eax
  401f6c:	e8 3f f4 ff ff       	call   4013b0 <random@plt>
  401f71:	48 89 c1             	mov    %rax,%rcx
  401f74:	48 ba 0b d7 a3 70 3d 	movabs $0xa3d70a3d70a3d70b,%rdx
  401f7b:	0a d7 a3 
  401f7e:	48 f7 ea             	imul   %rdx
  401f81:	48 01 ca             	add    %rcx,%rdx
  401f84:	48 c1 fa 06          	sar    $0x6,%rdx
  401f88:	48 89 c8             	mov    %rcx,%rax
  401f8b:	48 c1 f8 3f          	sar    $0x3f,%rax
  401f8f:	48 29 c2             	sub    %rax,%rdx
  401f92:	48 8d 04 92          	lea    (%rdx,%rdx,4),%rax
  401f96:	48 8d 04 80          	lea    (%rax,%rax,4),%rax
  401f9a:	48 c1 e0 02          	shl    $0x2,%rax
  401f9e:	48 29 c1             	sub    %rax,%rcx
  401fa1:	4c 8d 24 0c          	lea    (%rsp,%rcx,1),%r12
  401fa5:	41 89 e8             	mov    %ebp,%r8d
  401fa8:	48 8d 0d 44 23 00 00 	lea    0x2344(%rip),%rcx        # 4042f3 <_IO_stdin_used+0x2f3>
  401faf:	48 c7 c2 ff ff ff ff 	mov    $0xffffffffffffffff,%rdx
  401fb6:	be 01 00 00 00       	mov    $0x1,%esi
  401fbb:	4c 89 e7             	mov    %r12,%rdi
  401fbe:	b8 00 00 00 00       	mov    $0x0,%eax
  401fc3:	e8 a8 f4 ff ff       	call   401470 <__sprintf_chk@plt>
  401fc8:	ba 09 00 00 00       	mov    $0x9,%edx
  401fcd:	4c 89 e6             	mov    %r12,%rsi
  401fd0:	48 89 df             	mov    %rbx,%rdi
  401fd3:	e8 b8 f2 ff ff       	call   401290 <strncmp@plt>
  401fd8:	85 c0                	test   %eax,%eax
  401fda:	0f 94 c0             	sete   %al
  401fdd:	48 8b 54 24 78       	mov    0x78(%rsp),%rdx
  401fe2:	64 48 2b 14 25 28 00 	sub    %fs:0x28,%rdx
  401fe9:	00 00 
  401feb:	75 0c                	jne    401ff9 <hexmatch+0xae>
  401fed:	0f b6 c0             	movzbl %al,%eax
  401ff0:	48 83 ec 80          	sub    $0xffffffffffffff80,%rsp
  401ff4:	5b                   	pop    %rbx
  401ff5:	5d                   	pop    %rbp
  401ff6:	41 5c                	pop    %r12
  401ff8:	c3                   	ret    
  401ff9:	e8 f2 f2 ff ff       	call   4012f0 <__stack_chk_fail@plt>

0000000000401ffe <touch3>:
  401ffe:	f3 0f 1e fa          	endbr64 
  402002:	53                   	push   %rbx
  402003:	48 89 fb             	mov    %rdi,%rbx
  402006:	c7 05 3c 55 00 00 03 	movl   $0x3,0x553c(%rip)        # 40754c <vlevel>
  40200d:	00 00 00 
  402010:	48 89 fe             	mov    %rdi,%rsi
  402013:	8b 3d 3b 55 00 00    	mov    0x553b(%rip),%edi        # 407554 <cookie>
  402019:	e8 2d ff ff ff       	call   401f4b <hexmatch>
  40201e:	85 c0                	test   %eax,%eax
  402020:	74 2d                	je     40204f <touch3+0x51>
  402022:	48 89 da             	mov    %rbx,%rdx
  402025:	48 8d 35 1c 23 00 00 	lea    0x231c(%rip),%rsi        # 404348 <_IO_stdin_used+0x348>
  40202c:	bf 01 00 00 00       	mov    $0x1,%edi
  402031:	b8 00 00 00 00       	mov    $0x0,%eax
  402036:	e8 a5 f3 ff ff       	call   4013e0 <__printf_chk@plt>
  40203b:	bf 03 00 00 00       	mov    $0x3,%edi
  402040:	e8 8d 03 00 00       	call   4023d2 <validate>
  402045:	bf 00 00 00 00       	mov    $0x0,%edi
  40204a:	e8 e1 f3 ff ff       	call   401430 <exit@plt>
  40204f:	48 89 da             	mov    %rbx,%rdx
  402052:	48 8d 35 17 23 00 00 	lea    0x2317(%rip),%rsi        # 404370 <_IO_stdin_used+0x370>
  402059:	bf 01 00 00 00       	mov    $0x1,%edi
  40205e:	b8 00 00 00 00       	mov    $0x0,%eax
  402063:	e8 78 f3 ff ff       	call   4013e0 <__printf_chk@plt>
  402068:	bf 03 00 00 00       	mov    $0x3,%edi
  40206d:	e8 34 04 00 00       	call   4024a6 <fail>
  402072:	eb d1                	jmp    402045 <touch3+0x47>

0000000000402074 <test>:
  402074:	f3 0f 1e fa          	endbr64 
  402078:	48 83 ec 08          	sub    $0x8,%rsp
  40207c:	b8 00 00 00 00       	mov    $0x0,%eax
  402081:	e8 0d fe ff ff       	call   401e93 <getbuf>
  402086:	89 c2                	mov    %eax,%edx
  402088:	48 8d 35 09 23 00 00 	lea    0x2309(%rip),%rsi        # 404398 <_IO_stdin_used+0x398>
  40208f:	bf 01 00 00 00       	mov    $0x1,%edi
  402094:	b8 00 00 00 00       	mov    $0x0,%eax
  402099:	e8 42 f3 ff ff       	call   4013e0 <__printf_chk@plt>
  40209e:	48 83 c4 08          	add    $0x8,%rsp
  4020a2:	c3                   	ret    

00000000004020a3 <save_char>:
  4020a3:	8b 05 bb 60 00 00    	mov    0x60bb(%rip),%eax        # 408164 <gets_cnt>
  4020a9:	3d ff 03 00 00       	cmp    $0x3ff,%eax
  4020ae:	7f 4a                	jg     4020fa <save_char+0x57>
  4020b0:	89 f9                	mov    %edi,%ecx
  4020b2:	c0 e9 04             	shr    $0x4,%cl
  4020b5:	8d 14 40             	lea    (%rax,%rax,2),%edx
  4020b8:	4c 8d 05 01 26 00 00 	lea    0x2601(%rip),%r8        # 4046c0 <trans_char>
  4020bf:	83 e1 0f             	and    $0xf,%ecx
  4020c2:	45 0f b6 0c 08       	movzbl (%r8,%rcx,1),%r9d
  4020c7:	48 8d 0d 92 54 00 00 	lea    0x5492(%rip),%rcx        # 407560 <gets_buf>
  4020ce:	48 63 f2             	movslq %edx,%rsi
  4020d1:	44 88 0c 31          	mov    %r9b,(%rcx,%rsi,1)
  4020d5:	8d 72 01             	lea    0x1(%rdx),%esi
  4020d8:	83 e7 0f             	and    $0xf,%edi
  4020db:	41 0f b6 3c 38       	movzbl (%r8,%rdi,1),%edi
  4020e0:	48 63 f6             	movslq %esi,%rsi
  4020e3:	40 88 3c 31          	mov    %dil,(%rcx,%rsi,1)
  4020e7:	83 c2 02             	add    $0x2,%edx
  4020ea:	48 63 d2             	movslq %edx,%rdx
  4020ed:	c6 04 11 20          	movb   $0x20,(%rcx,%rdx,1)
  4020f1:	83 c0 01             	add    $0x1,%eax
  4020f4:	89 05 6a 60 00 00    	mov    %eax,0x606a(%rip)        # 408164 <gets_cnt>
  4020fa:	c3                   	ret    

00000000004020fb <save_term>:
  4020fb:	8b 05 63 60 00 00    	mov    0x6063(%rip),%eax        # 408164 <gets_cnt>
  402101:	8d 04 40             	lea    (%rax,%rax,2),%eax
  402104:	48 98                	cltq   
  402106:	48 8d 15 53 54 00 00 	lea    0x5453(%rip),%rdx        # 407560 <gets_buf>
  40210d:	c6 04 02 00          	movb   $0x0,(%rdx,%rax,1)
  402111:	c3                   	ret    

0000000000402112 <check_fail>:
  402112:	f3 0f 1e fa          	endbr64 
  402116:	50                   	push   %rax
  402117:	58                   	pop    %rax
  402118:	48 83 ec 08          	sub    $0x8,%rsp
  40211c:	0f be 15 15 54 00 00 	movsbl 0x5415(%rip),%edx        # 407538 <target_prefix>
  402123:	4c 8d 05 36 54 00 00 	lea    0x5436(%rip),%r8        # 407560 <gets_buf>
  40212a:	8b 0d 18 54 00 00    	mov    0x5418(%rip),%ecx        # 407548 <check_level>
  402130:	48 8d 35 84 22 00 00 	lea    0x2284(%rip),%rsi        # 4043bb <_IO_stdin_used+0x3bb>
  402137:	bf 01 00 00 00       	mov    $0x1,%edi
  40213c:	b8 00 00 00 00       	mov    $0x0,%eax
  402141:	e8 9a f2 ff ff       	call   4013e0 <__printf_chk@plt>
  402146:	bf 01 00 00 00       	mov    $0x1,%edi
  40214b:	e8 e0 f2 ff ff       	call   401430 <exit@plt>

0000000000402150 <Gets>:
  402150:	f3 0f 1e fa          	endbr64 
  402154:	41 54                	push   %r12
  402156:	55                   	push   %rbp
  402157:	53                   	push   %rbx
  402158:	49 89 fc             	mov    %rdi,%r12
  40215b:	c7 05 ff 5f 00 00 00 	movl   $0x0,0x5fff(%rip)        # 408164 <gets_cnt>
  402162:	00 00 00 
  402165:	48 89 fb             	mov    %rdi,%rbx
  402168:	eb 11                	jmp    40217b <Gets+0x2b>
  40216a:	48 8d 6b 01          	lea    0x1(%rbx),%rbp
  40216e:	88 03                	mov    %al,(%rbx)
  402170:	0f b6 f8             	movzbl %al,%edi
  402173:	e8 2b ff ff ff       	call   4020a3 <save_char>
  402178:	48 89 eb             	mov    %rbp,%rbx
  40217b:	48 8b 3d be 53 00 00 	mov    0x53be(%rip),%rdi        # 407540 <infile>
  402182:	e8 d9 f2 ff ff       	call   401460 <getc@plt>
  402187:	83 f8 ff             	cmp    $0xffffffff,%eax
  40218a:	74 05                	je     402191 <Gets+0x41>
  40218c:	83 f8 0a             	cmp    $0xa,%eax
  40218f:	75 d9                	jne    40216a <Gets+0x1a>
  402191:	c6 03 00             	movb   $0x0,(%rbx)
  402194:	b8 00 00 00 00       	mov    $0x0,%eax
  402199:	e8 5d ff ff ff       	call   4020fb <save_term>
  40219e:	4c 89 e0             	mov    %r12,%rax
  4021a1:	5b                   	pop    %rbx
  4021a2:	5d                   	pop    %rbp
  4021a3:	41 5c                	pop    %r12
  4021a5:	c3                   	ret    

00000000004021a6 <notify_server>:
  4021a6:	f3 0f 1e fa          	endbr64 
  4021aa:	55                   	push   %rbp
  4021ab:	53                   	push   %rbx
  4021ac:	4c 8d 9c 24 00 c0 ff 	lea    -0x4000(%rsp),%r11
  4021b3:	ff 
  4021b4:	48 81 ec 00 10 00 00 	sub    $0x1000,%rsp
  4021bb:	48 83 0c 24 00       	orq    $0x0,(%rsp)
  4021c0:	4c 39 dc             	cmp    %r11,%rsp
  4021c3:	75 ef                	jne    4021b4 <notify_server+0xe>
  4021c5:	48 83 ec 18          	sub    $0x18,%rsp
  4021c9:	64 48 8b 04 25 28 00 	mov    %fs:0x28,%rax
  4021d0:	00 00 
  4021d2:	48 89 84 24 08 40 00 	mov    %rax,0x4008(%rsp)
  4021d9:	00 
  4021da:	31 c0                	xor    %eax,%eax
  4021dc:	83 3d 75 53 00 00 00 	cmpl   $0x0,0x5375(%rip)        # 407558 <is_checker>
  4021e3:	0f 85 35 01 00 00    	jne    40231e <notify_server+0x178>
  4021e9:	89 fb                	mov    %edi,%ebx
  4021eb:	81 3d 6f 5f 00 00 9c 	cmpl   $0x1f9c,0x5f6f(%rip)        # 408164 <gets_cnt>
  4021f2:	1f 00 00 
  4021f5:	0f 8f be 00 00 00    	jg     4022b9 <notify_server+0x113>
  4021fb:	0f be 05 36 53 00 00 	movsbl 0x5336(%rip),%eax        # 407538 <target_prefix>
  402202:	83 3d 9f 52 00 00 00 	cmpl   $0x0,0x529f(%rip)        # 4074a8 <notify>
  402209:	0f 84 c5 00 00 00    	je     4022d4 <notify_server+0x12e>
  40220f:	8b 15 3b 53 00 00    	mov    0x533b(%rip),%edx        # 407550 <authkey>
  402215:	85 db                	test   %ebx,%ebx
  402217:	0f 84 c1 00 00 00    	je     4022de <notify_server+0x138>
  40221d:	48 8d 2d ad 21 00 00 	lea    0x21ad(%rip),%rbp        # 4043d1 <_IO_stdin_used+0x3d1>
  402224:	48 89 e7             	mov    %rsp,%rdi
  402227:	48 8d 0d 32 53 00 00 	lea    0x5332(%rip),%rcx        # 407560 <gets_buf>
  40222e:	51                   	push   %rcx
  40222f:	56                   	push   %rsi
  402230:	50                   	push   %rax
  402231:	52                   	push   %rdx
  402232:	49 89 e9             	mov    %rbp,%r9
  402235:	44 8b 05 14 4f 00 00 	mov    0x4f14(%rip),%r8d        # 407150 <target_id>
  40223c:	48 8d 0d 98 21 00 00 	lea    0x2198(%rip),%rcx        # 4043db <_IO_stdin_used+0x3db>
  402243:	ba 00 20 00 00       	mov    $0x2000,%edx
  402248:	be 01 00 00 00       	mov    $0x1,%esi
  40224d:	b8 00 00 00 00       	mov    $0x0,%eax
  402252:	e8 19 f2 ff ff       	call   401470 <__sprintf_chk@plt>
  402257:	48 83 c4 20          	add    $0x20,%rsp
  40225b:	83 3d 46 52 00 00 00 	cmpl   $0x0,0x5246(%rip)        # 4074a8 <notify>
  402262:	0f 84 d7 00 00 00    	je     40233f <notify_server+0x199>
  402268:	85 db                	test   %ebx,%ebx
  40226a:	0f 84 a2 00 00 00    	je     402312 <notify_server+0x16c>
  402270:	48 89 e1             	mov    %rsp,%rcx
  402273:	4c 8d 8c 24 00 20 00 	lea    0x2000(%rsp),%r9
  40227a:	00 
  40227b:	41 b8 00 00 00 00    	mov    $0x0,%r8d
  402281:	48 8b 15 e0 4e 00 00 	mov    0x4ee0(%rip),%rdx        # 407168 <lab>
  402288:	48 8b 35 11 52 00 00 	mov    0x5211(%rip),%rsi        # 4074a0 <course>
  40228f:	48 8b 3d ca 4e 00 00 	mov    0x4eca(%rip),%rdi        # 407160 <user_id>
  402296:	e8 ce 11 00 00       	call   403469 <driver_post>
  40229b:	85 c0                	test   %eax,%eax
  40229d:	78 4b                	js     4022ea <notify_server+0x144>
  40229f:	48 8d 3d 7a 22 00 00 	lea    0x227a(%rip),%rdi        # 404520 <_IO_stdin_used+0x520>
  4022a6:	e8 15 f0 ff ff       	call   4012c0 <puts@plt>
  4022ab:	48 8d 3d 51 21 00 00 	lea    0x2151(%rip),%rdi        # 404403 <_IO_stdin_used+0x403>
  4022b2:	e8 09 f0 ff ff       	call   4012c0 <puts@plt>
  4022b7:	eb 65                	jmp    40231e <notify_server+0x178>
  4022b9:	48 8d 35 30 22 00 00 	lea    0x2230(%rip),%rsi        # 4044f0 <_IO_stdin_used+0x4f0>
  4022c0:	bf 01 00 00 00       	mov    $0x1,%edi
  4022c5:	e8 16 f1 ff ff       	call   4013e0 <__printf_chk@plt>
  4022ca:	bf 01 00 00 00       	mov    $0x1,%edi
  4022cf:	e8 5c f1 ff ff       	call   401430 <exit@plt>
  4022d4:	ba ff ff ff ff       	mov    $0xffffffff,%edx
  4022d9:	e9 37 ff ff ff       	jmp    402215 <notify_server+0x6f>
  4022de:	48 8d 2d f1 20 00 00 	lea    0x20f1(%rip),%rbp        # 4043d6 <_IO_stdin_used+0x3d6>
  4022e5:	e9 3a ff ff ff       	jmp    402224 <notify_server+0x7e>
  4022ea:	48 8d 94 24 00 20 00 	lea    0x2000(%rsp),%rdx
  4022f1:	00 
  4022f2:	48 8d 35 fe 20 00 00 	lea    0x20fe(%rip),%rsi        # 4043f7 <_IO_stdin_used+0x3f7>
  4022f9:	bf 01 00 00 00       	mov    $0x1,%edi
  4022fe:	b8 00 00 00 00       	mov    $0x0,%eax
  402303:	e8 d8 f0 ff ff       	call   4013e0 <__printf_chk@plt>
  402308:	bf 01 00 00 00       	mov    $0x1,%edi
  40230d:	e8 1e f1 ff ff       	call   401430 <exit@plt>
  402312:	48 8d 3d f4 20 00 00 	lea    0x20f4(%rip),%rdi        # 40440d <_IO_stdin_used+0x40d>
  402319:	e8 a2 ef ff ff       	call   4012c0 <puts@plt>
  40231e:	48 8b 84 24 08 40 00 	mov    0x4008(%rsp),%rax
  402325:	00 
  402326:	64 48 2b 04 25 28 00 	sub    %fs:0x28,%rax
  40232d:	00 00 
  40232f:	0f 85 98 00 00 00    	jne    4023cd <notify_server+0x227>
  402335:	48 81 c4 18 40 00 00 	add    $0x4018,%rsp
  40233c:	5b                   	pop    %rbx
  40233d:	5d                   	pop    %rbp
  40233e:	c3                   	ret    
  40233f:	48 89 ea             	mov    %rbp,%rdx
  402342:	48 8d 35 0f 22 00 00 	lea    0x220f(%rip),%rsi        # 404558 <_IO_stdin_used+0x558>
  402349:	bf 01 00 00 00       	mov    $0x1,%edi
  40234e:	b8 00 00 00 00       	mov    $0x0,%eax
  402353:	e8 88 f0 ff ff       	call   4013e0 <__printf_chk@plt>
  402358:	48 8b 15 01 4e 00 00 	mov    0x4e01(%rip),%rdx        # 407160 <user_id>
  40235f:	48 8d 35 ae 20 00 00 	lea    0x20ae(%rip),%rsi        # 404414 <_IO_stdin_used+0x414>
  402366:	bf 01 00 00 00       	mov    $0x1,%edi
  40236b:	b8 00 00 00 00       	mov    $0x0,%eax
  402370:	e8 6b f0 ff ff       	call   4013e0 <__printf_chk@plt>
  402375:	48 8b 15 24 51 00 00 	mov    0x5124(%rip),%rdx        # 4074a0 <course>
  40237c:	48 8d 35 9e 20 00 00 	lea    0x209e(%rip),%rsi        # 404421 <_IO_stdin_used+0x421>
  402383:	bf 01 00 00 00       	mov    $0x1,%edi
  402388:	b8 00 00 00 00       	mov    $0x0,%eax
  40238d:	e8 4e f0 ff ff       	call   4013e0 <__printf_chk@plt>
  402392:	48 8b 15 cf 4d 00 00 	mov    0x4dcf(%rip),%rdx        # 407168 <lab>
  402399:	48 8d 35 8d 20 00 00 	lea    0x208d(%rip),%rsi        # 40442d <_IO_stdin_used+0x42d>
  4023a0:	bf 01 00 00 00       	mov    $0x1,%edi
  4023a5:	b8 00 00 00 00       	mov    $0x0,%eax
  4023aa:	e8 31 f0 ff ff       	call   4013e0 <__printf_chk@plt>
  4023af:	48 89 e2             	mov    %rsp,%rdx
  4023b2:	48 8d 35 7d 20 00 00 	lea    0x207d(%rip),%rsi        # 404436 <_IO_stdin_used+0x436>
  4023b9:	bf 01 00 00 00       	mov    $0x1,%edi
  4023be:	b8 00 00 00 00       	mov    $0x0,%eax
  4023c3:	e8 18 f0 ff ff       	call   4013e0 <__printf_chk@plt>
  4023c8:	e9 51 ff ff ff       	jmp    40231e <notify_server+0x178>
  4023cd:	e8 1e ef ff ff       	call   4012f0 <__stack_chk_fail@plt>

00000000004023d2 <validate>:
  4023d2:	f3 0f 1e fa          	endbr64 
  4023d6:	53                   	push   %rbx
  4023d7:	89 fb                	mov    %edi,%ebx
  4023d9:	83 3d 78 51 00 00 00 	cmpl   $0x0,0x5178(%rip)        # 407558 <is_checker>
  4023e0:	74 72                	je     402454 <validate+0x82>
  4023e2:	39 3d 64 51 00 00    	cmp    %edi,0x5164(%rip)        # 40754c <vlevel>
  4023e8:	75 32                	jne    40241c <validate+0x4a>
  4023ea:	8b 15 58 51 00 00    	mov    0x5158(%rip),%edx        # 407548 <check_level>
  4023f0:	39 fa                	cmp    %edi,%edx
  4023f2:	75 3e                	jne    402432 <validate+0x60>
  4023f4:	0f be 15 3d 51 00 00 	movsbl 0x513d(%rip),%edx        # 407538 <target_prefix>
  4023fb:	4c 8d 05 5e 51 00 00 	lea    0x515e(%rip),%r8        # 407560 <gets_buf>
  402402:	89 f9                	mov    %edi,%ecx
  402404:	48 8d 35 55 20 00 00 	lea    0x2055(%rip),%rsi        # 404460 <_IO_stdin_used+0x460>
  40240b:	bf 01 00 00 00       	mov    $0x1,%edi
  402410:	b8 00 00 00 00       	mov    $0x0,%eax
  402415:	e8 c6 ef ff ff       	call   4013e0 <__printf_chk@plt>
  40241a:	5b                   	pop    %rbx
  40241b:	c3                   	ret    
  40241c:	48 8d 3d 1f 20 00 00 	lea    0x201f(%rip),%rdi        # 404442 <_IO_stdin_used+0x442>
  402423:	e8 98 ee ff ff       	call   4012c0 <puts@plt>
  402428:	b8 00 00 00 00       	mov    $0x0,%eax
  40242d:	e8 e0 fc ff ff       	call   402112 <check_fail>
  402432:	89 f9                	mov    %edi,%ecx
  402434:	48 8d 35 45 21 00 00 	lea    0x2145(%rip),%rsi        # 404580 <_IO_stdin_used+0x580>
  40243b:	bf 01 00 00 00       	mov    $0x1,%edi
  402440:	b8 00 00 00 00       	mov    $0x0,%eax
  402445:	e8 96 ef ff ff       	call   4013e0 <__printf_chk@plt>
  40244a:	b8 00 00 00 00       	mov    $0x0,%eax
  40244f:	e8 be fc ff ff       	call   402112 <check_fail>
  402454:	39 3d f2 50 00 00    	cmp    %edi,0x50f2(%rip)        # 40754c <vlevel>
  40245a:	74 1a                	je     402476 <validate+0xa4>
  40245c:	48 8d 3d df 1f 00 00 	lea    0x1fdf(%rip),%rdi        # 404442 <_IO_stdin_used+0x442>
  402463:	e8 58 ee ff ff       	call   4012c0 <puts@plt>
  402468:	89 de                	mov    %ebx,%esi
  40246a:	bf 00 00 00 00       	mov    $0x0,%edi
  40246f:	e8 32 fd ff ff       	call   4021a6 <notify_server>
  402474:	eb a4                	jmp    40241a <validate+0x48>
  402476:	0f be 0d bb 50 00 00 	movsbl 0x50bb(%rip),%ecx        # 407538 <target_prefix>
  40247d:	89 fa                	mov    %edi,%edx
  40247f:	48 8d 35 22 21 00 00 	lea    0x2122(%rip),%rsi        # 4045a8 <_IO_stdin_used+0x5a8>
  402486:	bf 01 00 00 00       	mov    $0x1,%edi
  40248b:	b8 00 00 00 00       	mov    $0x0,%eax
  402490:	e8 4b ef ff ff       	call   4013e0 <__printf_chk@plt>
  402495:	89 de                	mov    %ebx,%esi
  402497:	bf 01 00 00 00       	mov    $0x1,%edi
  40249c:	e8 05 fd ff ff       	call   4021a6 <notify_server>
  4024a1:	e9 74 ff ff ff       	jmp    40241a <validate+0x48>

00000000004024a6 <fail>:
  4024a6:	f3 0f 1e fa          	endbr64 
  4024aa:	48 83 ec 08          	sub    $0x8,%rsp
  4024ae:	83 3d a3 50 00 00 00 	cmpl   $0x0,0x50a3(%rip)        # 407558 <is_checker>
  4024b5:	75 11                	jne    4024c8 <fail+0x22>
  4024b7:	89 fe                	mov    %edi,%esi
  4024b9:	bf 00 00 00 00       	mov    $0x0,%edi
  4024be:	e8 e3 fc ff ff       	call   4021a6 <notify_server>
  4024c3:	48 83 c4 08          	add    $0x8,%rsp
  4024c7:	c3                   	ret    
  4024c8:	b8 00 00 00 00       	mov    $0x0,%eax
  4024cd:	e8 40 fc ff ff       	call   402112 <check_fail>

00000000004024d2 <bushandler>:
  4024d2:	f3 0f 1e fa          	endbr64 
  4024d6:	50                   	push   %rax
  4024d7:	58                   	pop    %rax
  4024d8:	48 83 ec 08          	sub    $0x8,%rsp
  4024dc:	83 3d 75 50 00 00 00 	cmpl   $0x0,0x5075(%rip)        # 407558 <is_checker>
  4024e3:	74 16                	je     4024fb <bushandler+0x29>
  4024e5:	48 8d 3d 89 1f 00 00 	lea    0x1f89(%rip),%rdi        # 404475 <_IO_stdin_used+0x475>
  4024ec:	e8 cf ed ff ff       	call   4012c0 <puts@plt>
  4024f1:	b8 00 00 00 00       	mov    $0x0,%eax
  4024f6:	e8 17 fc ff ff       	call   402112 <check_fail>
  4024fb:	48 8d 3d de 20 00 00 	lea    0x20de(%rip),%rdi        # 4045e0 <_IO_stdin_used+0x5e0>
  402502:	e8 b9 ed ff ff       	call   4012c0 <puts@plt>
  402507:	48 8d 3d 71 1f 00 00 	lea    0x1f71(%rip),%rdi        # 40447f <_IO_stdin_used+0x47f>
  40250e:	e8 ad ed ff ff       	call   4012c0 <puts@plt>
  402513:	be 00 00 00 00       	mov    $0x0,%esi
  402518:	bf 00 00 00 00       	mov    $0x0,%edi
  40251d:	e8 84 fc ff ff       	call   4021a6 <notify_server>
  402522:	bf 01 00 00 00       	mov    $0x1,%edi
  402527:	e8 04 ef ff ff       	call   401430 <exit@plt>

000000000040252c <seghandler>:
  40252c:	f3 0f 1e fa          	endbr64 
  402530:	50                   	push   %rax
  402531:	58                   	pop    %rax
  402532:	48 83 ec 08          	sub    $0x8,%rsp
  402536:	83 3d 1b 50 00 00 00 	cmpl   $0x0,0x501b(%rip)        # 407558 <is_checker>
  40253d:	74 16                	je     402555 <seghandler+0x29>
  40253f:	48 8d 3d 4f 1f 00 00 	lea    0x1f4f(%rip),%rdi        # 404495 <_IO_stdin_used+0x495>
  402546:	e8 75 ed ff ff       	call   4012c0 <puts@plt>
  40254b:	b8 00 00 00 00       	mov    $0x0,%eax
  402550:	e8 bd fb ff ff       	call   402112 <check_fail>
  402555:	48 8d 3d a4 20 00 00 	lea    0x20a4(%rip),%rdi        # 404600 <_IO_stdin_used+0x600>
  40255c:	e8 5f ed ff ff       	call   4012c0 <puts@plt>
  402561:	48 8d 3d 17 1f 00 00 	lea    0x1f17(%rip),%rdi        # 40447f <_IO_stdin_used+0x47f>
  402568:	e8 53 ed ff ff       	call   4012c0 <puts@plt>
  40256d:	be 00 00 00 00       	mov    $0x0,%esi
  402572:	bf 00 00 00 00       	mov    $0x0,%edi
  402577:	e8 2a fc ff ff       	call   4021a6 <notify_server>
  40257c:	bf 01 00 00 00       	mov    $0x1,%edi
  402581:	e8 aa ee ff ff       	call   401430 <exit@plt>

0000000000402586 <illegalhandler>:
  402586:	f3 0f 1e fa          	endbr64 
  40258a:	50                   	push   %rax
  40258b:	58                   	pop    %rax
  40258c:	48 83 ec 08          	sub    $0x8,%rsp
  402590:	83 3d c1 4f 00 00 00 	cmpl   $0x0,0x4fc1(%rip)        # 407558 <is_checker>
  402597:	74 16                	je     4025af <illegalhandler+0x29>
  402599:	48 8d 3d 08 1f 00 00 	lea    0x1f08(%rip),%rdi        # 4044a8 <_IO_stdin_used+0x4a8>
  4025a0:	e8 1b ed ff ff       	call   4012c0 <puts@plt>
  4025a5:	b8 00 00 00 00       	mov    $0x0,%eax
  4025aa:	e8 63 fb ff ff       	call   402112 <check_fail>
  4025af:	48 8d 3d 72 20 00 00 	lea    0x2072(%rip),%rdi        # 404628 <_IO_stdin_used+0x628>
  4025b6:	e8 05 ed ff ff       	call   4012c0 <puts@plt>
  4025bb:	48 8d 3d bd 1e 00 00 	lea    0x1ebd(%rip),%rdi        # 40447f <_IO_stdin_used+0x47f>
  4025c2:	e8 f9 ec ff ff       	call   4012c0 <puts@plt>
  4025c7:	be 00 00 00 00       	mov    $0x0,%esi
  4025cc:	bf 00 00 00 00       	mov    $0x0,%edi
  4025d1:	e8 d0 fb ff ff       	call   4021a6 <notify_server>
  4025d6:	bf 01 00 00 00       	mov    $0x1,%edi
  4025db:	e8 50 ee ff ff       	call   401430 <exit@plt>

00000000004025e0 <sigalrmhandler>:
  4025e0:	f3 0f 1e fa          	endbr64 
  4025e4:	50                   	push   %rax
  4025e5:	58                   	pop    %rax
  4025e6:	48 83 ec 08          	sub    $0x8,%rsp
  4025ea:	83 3d 67 4f 00 00 00 	cmpl   $0x0,0x4f67(%rip)        # 407558 <is_checker>
  4025f1:	74 16                	je     402609 <sigalrmhandler+0x29>
  4025f3:	48 8d 3d c2 1e 00 00 	lea    0x1ec2(%rip),%rdi        # 4044bc <_IO_stdin_used+0x4bc>
  4025fa:	e8 c1 ec ff ff       	call   4012c0 <puts@plt>
  4025ff:	b8 00 00 00 00       	mov    $0x0,%eax
  402604:	e8 09 fb ff ff       	call   402112 <check_fail>
  402609:	ba 05 00 00 00       	mov    $0x5,%edx
  40260e:	48 8d 35 43 20 00 00 	lea    0x2043(%rip),%rsi        # 404658 <_IO_stdin_used+0x658>
  402615:	bf 01 00 00 00       	mov    $0x1,%edi
  40261a:	b8 00 00 00 00       	mov    $0x0,%eax
  40261f:	e8 bc ed ff ff       	call   4013e0 <__printf_chk@plt>
  402624:	be 00 00 00 00       	mov    $0x0,%esi
  402629:	bf 00 00 00 00       	mov    $0x0,%edi
  40262e:	e8 73 fb ff ff       	call   4021a6 <notify_server>
  402633:	bf 01 00 00 00       	mov    $0x1,%edi
  402638:	e8 f3 ed ff ff       	call   401430 <exit@plt>

000000000040263d <launch>:
  40263d:	f3 0f 1e fa          	endbr64 
  402641:	55                   	push   %rbp
  402642:	48 89 e5             	mov    %rsp,%rbp
  402645:	48 83 ec 10          	sub    $0x10,%rsp
  402649:	48 89 fa             	mov    %rdi,%rdx
  40264c:	64 48 8b 04 25 28 00 	mov    %fs:0x28,%rax
  402653:	00 00 
  402655:	48 89 45 f8          	mov    %rax,-0x8(%rbp)
  402659:	31 c0                	xor    %eax,%eax
  40265b:	48 8d 47 17          	lea    0x17(%rdi),%rax
  40265f:	48 89 c6             	mov    %rax,%rsi
  402662:	48 83 e6 f0          	and    $0xfffffffffffffff0,%rsi
  402666:	48 25 00 f0 ff ff    	and    $0xfffffffffffff000,%rax
  40266c:	48 89 e1             	mov    %rsp,%rcx
  40266f:	48 29 c1             	sub    %rax,%rcx
  402672:	48 39 cc             	cmp    %rcx,%rsp
  402675:	74 12                	je     402689 <launch+0x4c>
  402677:	48 81 ec 00 10 00 00 	sub    $0x1000,%rsp
  40267e:	48 83 8c 24 f8 0f 00 	orq    $0x0,0xff8(%rsp)
  402685:	00 00 
  402687:	eb e9                	jmp    402672 <launch+0x35>
  402689:	48 89 f0             	mov    %rsi,%rax
  40268c:	25 ff 0f 00 00       	and    $0xfff,%eax
  402691:	48 29 c4             	sub    %rax,%rsp
  402694:	48 85 c0             	test   %rax,%rax
  402697:	74 06                	je     40269f <launch+0x62>
  402699:	48 83 4c 04 f8 00    	orq    $0x0,-0x8(%rsp,%rax,1)
  40269f:	48 8d 7c 24 0f       	lea    0xf(%rsp),%rdi
  4026a4:	48 83 e7 f0          	and    $0xfffffffffffffff0,%rdi
  4026a8:	be f4 00 00 00       	mov    $0xf4,%esi
  4026ad:	e8 5e ec ff ff       	call   401310 <memset@plt>
  4026b2:	48 8b 05 07 4e 00 00 	mov    0x4e07(%rip),%rax        # 4074c0 <stdin@GLIBC_2.2.5>
  4026b9:	48 39 05 80 4e 00 00 	cmp    %rax,0x4e80(%rip)        # 407540 <infile>
  4026c0:	74 3a                	je     4026fc <launch+0xbf>
  4026c2:	c7 05 80 4e 00 00 00 	movl   $0x0,0x4e80(%rip)        # 40754c <vlevel>
  4026c9:	00 00 00 
  4026cc:	b8 00 00 00 00       	mov    $0x0,%eax
  4026d1:	e8 9e f9 ff ff       	call   402074 <test>
  4026d6:	83 3d 7b 4e 00 00 00 	cmpl   $0x0,0x4e7b(%rip)        # 407558 <is_checker>
  4026dd:	75 35                	jne    402714 <launch+0xd7>
  4026df:	48 8d 3d f6 1d 00 00 	lea    0x1df6(%rip),%rdi        # 4044dc <_IO_stdin_used+0x4dc>
  4026e6:	e8 d5 eb ff ff       	call   4012c0 <puts@plt>
  4026eb:	48 8b 45 f8          	mov    -0x8(%rbp),%rax
  4026ef:	64 48 2b 04 25 28 00 	sub    %fs:0x28,%rax
  4026f6:	00 00 
  4026f8:	75 30                	jne    40272a <launch+0xed>
  4026fa:	c9                   	leave  
  4026fb:	c3                   	ret    
  4026fc:	48 8d 35 c1 1d 00 00 	lea    0x1dc1(%rip),%rsi        # 4044c4 <_IO_stdin_used+0x4c4>
  402703:	bf 01 00 00 00       	mov    $0x1,%edi
  402708:	b8 00 00 00 00       	mov    $0x0,%eax
  40270d:	e8 ce ec ff ff       	call   4013e0 <__printf_chk@plt>
  402712:	eb ae                	jmp    4026c2 <launch+0x85>
  402714:	48 8d 3d b6 1d 00 00 	lea    0x1db6(%rip),%rdi        # 4044d1 <_IO_stdin_used+0x4d1>
  40271b:	e8 a0 eb ff ff       	call   4012c0 <puts@plt>
  402720:	b8 00 00 00 00       	mov    $0x0,%eax
  402725:	e8 e8 f9 ff ff       	call   402112 <check_fail>
  40272a:	e8 c1 eb ff ff       	call   4012f0 <__stack_chk_fail@plt>

000000000040272f <stable_launch>:
  40272f:	f3 0f 1e fa          	endbr64 
  402733:	53                   	push   %rbx
  402734:	48 89 3d f5 4d 00 00 	mov    %rdi,0x4df5(%rip)        # 407530 <global_offset>
  40273b:	41 b9 00 00 00 00    	mov    $0x0,%r9d
  402741:	41 b8 00 00 00 00    	mov    $0x0,%r8d
  402747:	b9 32 01 00 00       	mov    $0x132,%ecx
  40274c:	ba 07 00 00 00       	mov    $0x7,%edx
  402751:	be 00 00 10 00       	mov    $0x100000,%esi
  402756:	bf 00 60 58 55       	mov    $0x55586000,%edi
  40275b:	e8 a0 eb ff ff       	call   401300 <mmap@plt>
  402760:	48 89 c3             	mov    %rax,%rbx
  402763:	48 3d 00 60 58 55    	cmp    $0x55586000,%rax
  402769:	75 43                	jne    4027ae <stable_launch+0x7f>
  40276b:	48 8d 90 f8 ff 0f 00 	lea    0xffff8(%rax),%rdx
  402772:	48 89 15 af 4d 00 00 	mov    %rdx,0x4daf(%rip)        # 407528 <stack_top>
  402779:	48 89 e0             	mov    %rsp,%rax
  40277c:	48 89 d4             	mov    %rdx,%rsp
  40277f:	48 89 c2             	mov    %rax,%rdx
  402782:	48 89 15 97 4d 00 00 	mov    %rdx,0x4d97(%rip)        # 407520 <global_save_stack>
  402789:	48 8b 3d a0 4d 00 00 	mov    0x4da0(%rip),%rdi        # 407530 <global_offset>
  402790:	e8 a8 fe ff ff       	call   40263d <launch>
  402795:	48 8b 05 84 4d 00 00 	mov    0x4d84(%rip),%rax        # 407520 <global_save_stack>
  40279c:	48 89 c4             	mov    %rax,%rsp
  40279f:	be 00 00 10 00       	mov    $0x100000,%esi
  4027a4:	48 89 df             	mov    %rbx,%rdi
  4027a7:	e8 24 ec ff ff       	call   4013d0 <munmap@plt>
  4027ac:	5b                   	pop    %rbx
  4027ad:	c3                   	ret    
  4027ae:	be 00 00 10 00       	mov    $0x100000,%esi
  4027b3:	48 89 c7             	mov    %rax,%rdi
  4027b6:	e8 15 ec ff ff       	call   4013d0 <munmap@plt>
  4027bb:	b9 00 60 58 55       	mov    $0x55586000,%ecx
  4027c0:	48 8d 15 c9 1e 00 00 	lea    0x1ec9(%rip),%rdx        # 404690 <_IO_stdin_used+0x690>
  4027c7:	be 01 00 00 00       	mov    $0x1,%esi
  4027cc:	48 8b 3d 2d 4d 00 00 	mov    0x4d2d(%rip),%rdi        # 407500 <stderr@GLIBC_2.2.5>
  4027d3:	b8 00 00 00 00       	mov    $0x0,%eax
  4027d8:	e8 73 ec ff ff       	call   401450 <__fprintf_chk@plt>
  4027dd:	bf 01 00 00 00       	mov    $0x1,%edi
  4027e2:	e8 49 ec ff ff       	call   401430 <exit@plt>

00000000004027e7 <rio_readinitb>:
  4027e7:	89 37                	mov    %esi,(%rdi)
  4027e9:	c7 47 04 00 00 00 00 	movl   $0x0,0x4(%rdi)
  4027f0:	48 8d 47 10          	lea    0x10(%rdi),%rax
  4027f4:	48 89 47 08          	mov    %rax,0x8(%rdi)
  4027f8:	c3                   	ret    

00000000004027f9 <sigalrm_handler>:
  4027f9:	f3 0f 1e fa          	endbr64 
  4027fd:	50                   	push   %rax
  4027fe:	58                   	pop    %rax
  4027ff:	48 83 ec 08          	sub    $0x8,%rsp
  402803:	b9 00 00 00 00       	mov    $0x0,%ecx
  402808:	48 8d 15 c1 1e 00 00 	lea    0x1ec1(%rip),%rdx        # 4046d0 <trans_char+0x10>
  40280f:	be 01 00 00 00       	mov    $0x1,%esi
  402814:	48 8b 3d e5 4c 00 00 	mov    0x4ce5(%rip),%rdi        # 407500 <stderr@GLIBC_2.2.5>
  40281b:	b8 00 00 00 00       	mov    $0x0,%eax
  402820:	e8 2b ec ff ff       	call   401450 <__fprintf_chk@plt>
  402825:	bf 01 00 00 00       	mov    $0x1,%edi
  40282a:	e8 01 ec ff ff       	call   401430 <exit@plt>

000000000040282f <rio_writen>:
  40282f:	41 55                	push   %r13
  402831:	41 54                	push   %r12
  402833:	55                   	push   %rbp
  402834:	53                   	push   %rbx
  402835:	48 83 ec 08          	sub    $0x8,%rsp
  402839:	41 89 fc             	mov    %edi,%r12d
  40283c:	48 89 f5             	mov    %rsi,%rbp
  40283f:	49 89 d5             	mov    %rdx,%r13
  402842:	48 89 d3             	mov    %rdx,%rbx
  402845:	eb 06                	jmp    40284d <rio_writen+0x1e>
  402847:	48 29 c3             	sub    %rax,%rbx
  40284a:	48 01 c5             	add    %rax,%rbp
  40284d:	48 85 db             	test   %rbx,%rbx
  402850:	74 24                	je     402876 <rio_writen+0x47>
  402852:	48 89 da             	mov    %rbx,%rdx
  402855:	48 89 ee             	mov    %rbp,%rsi
  402858:	44 89 e7             	mov    %r12d,%edi
  40285b:	e8 70 ea ff ff       	call   4012d0 <write@plt>
  402860:	48 85 c0             	test   %rax,%rax
  402863:	7f e2                	jg     402847 <rio_writen+0x18>
  402865:	e8 06 ea ff ff       	call   401270 <__errno_location@plt>
  40286a:	83 38 04             	cmpl   $0x4,(%rax)
  40286d:	75 15                	jne    402884 <rio_writen+0x55>
  40286f:	b8 00 00 00 00       	mov    $0x0,%eax
  402874:	eb d1                	jmp    402847 <rio_writen+0x18>
  402876:	4c 89 e8             	mov    %r13,%rax
  402879:	48 83 c4 08          	add    $0x8,%rsp
  40287d:	5b                   	pop    %rbx
  40287e:	5d                   	pop    %rbp
  40287f:	41 5c                	pop    %r12
  402881:	41 5d                	pop    %r13
  402883:	c3                   	ret    
  402884:	48 c7 c0 ff ff ff ff 	mov    $0xffffffffffffffff,%rax
  40288b:	eb ec                	jmp    402879 <rio_writen+0x4a>

000000000040288d <rio_read>:
  40288d:	41 55                	push   %r13
  40288f:	41 54                	push   %r12
  402891:	55                   	push   %rbp
  402892:	53                   	push   %rbx
  402893:	48 83 ec 08          	sub    $0x8,%rsp
  402897:	48 89 fb             	mov    %rdi,%rbx
  40289a:	49 89 f5             	mov    %rsi,%r13
  40289d:	49 89 d4             	mov    %rdx,%r12
  4028a0:	eb 0a                	jmp    4028ac <rio_read+0x1f>
  4028a2:	e8 c9 e9 ff ff       	call   401270 <__errno_location@plt>
  4028a7:	83 38 04             	cmpl   $0x4,(%rax)
  4028aa:	75 61                	jne    40290d <rio_read+0x80>
  4028ac:	8b 6b 04             	mov    0x4(%rbx),%ebp
  4028af:	85 ed                	test   %ebp,%ebp
  4028b1:	7f 29                	jg     4028dc <rio_read+0x4f>
  4028b3:	48 8d 6b 10          	lea    0x10(%rbx),%rbp
  4028b7:	8b 3b                	mov    (%rbx),%edi
  4028b9:	48 c7 c1 ff ff ff ff 	mov    $0xffffffffffffffff,%rcx
  4028c0:	ba 00 20 00 00       	mov    $0x2000,%edx
  4028c5:	48 89 ee             	mov    %rbp,%rsi
  4028c8:	e8 e3 e9 ff ff       	call   4012b0 <__read_chk@plt>
  4028cd:	89 43 04             	mov    %eax,0x4(%rbx)
  4028d0:	85 c0                	test   %eax,%eax
  4028d2:	78 ce                	js     4028a2 <rio_read+0x15>
  4028d4:	74 40                	je     402916 <rio_read+0x89>
  4028d6:	48 89 6b 08          	mov    %rbp,0x8(%rbx)
  4028da:	eb d0                	jmp    4028ac <rio_read+0x1f>
  4028dc:	89 e8                	mov    %ebp,%eax
  4028de:	4c 39 e0             	cmp    %r12,%rax
  4028e1:	72 03                	jb     4028e6 <rio_read+0x59>
  4028e3:	44 89 e5             	mov    %r12d,%ebp
  4028e6:	4c 63 e5             	movslq %ebp,%r12
  4028e9:	48 8b 73 08          	mov    0x8(%rbx),%rsi
  4028ed:	4c 89 e2             	mov    %r12,%rdx
  4028f0:	4c 89 ef             	mov    %r13,%rdi
  4028f3:	e8 98 ea ff ff       	call   401390 <memcpy@plt>
  4028f8:	4c 01 63 08          	add    %r12,0x8(%rbx)
  4028fc:	29 6b 04             	sub    %ebp,0x4(%rbx)
  4028ff:	4c 89 e0             	mov    %r12,%rax
  402902:	48 83 c4 08          	add    $0x8,%rsp
  402906:	5b                   	pop    %rbx
  402907:	5d                   	pop    %rbp
  402908:	41 5c                	pop    %r12
  40290a:	41 5d                	pop    %r13
  40290c:	c3                   	ret    
  40290d:	48 c7 c0 ff ff ff ff 	mov    $0xffffffffffffffff,%rax
  402914:	eb ec                	jmp    402902 <rio_read+0x75>
  402916:	b8 00 00 00 00       	mov    $0x0,%eax
  40291b:	eb e5                	jmp    402902 <rio_read+0x75>

000000000040291d <rio_readlineb>:
  40291d:	41 55                	push   %r13
  40291f:	41 54                	push   %r12
  402921:	55                   	push   %rbp
  402922:	53                   	push   %rbx
  402923:	48 83 ec 18          	sub    $0x18,%rsp
  402927:	49 89 fd             	mov    %rdi,%r13
  40292a:	48 89 f5             	mov    %rsi,%rbp
  40292d:	49 89 d4             	mov    %rdx,%r12
  402930:	64 48 8b 04 25 28 00 	mov    %fs:0x28,%rax
  402937:	00 00 
  402939:	48 89 44 24 08       	mov    %rax,0x8(%rsp)
  40293e:	31 c0                	xor    %eax,%eax
  402940:	bb 01 00 00 00       	mov    $0x1,%ebx
  402945:	eb 18                	jmp    40295f <rio_readlineb+0x42>
  402947:	85 c0                	test   %eax,%eax
  402949:	75 65                	jne    4029b0 <rio_readlineb+0x93>
  40294b:	48 83 fb 01          	cmp    $0x1,%rbx
  40294f:	75 3d                	jne    40298e <rio_readlineb+0x71>
  402951:	b8 00 00 00 00       	mov    $0x0,%eax
  402956:	eb 3d                	jmp    402995 <rio_readlineb+0x78>
  402958:	48 83 c3 01          	add    $0x1,%rbx
  40295c:	48 89 d5             	mov    %rdx,%rbp
  40295f:	4c 39 e3             	cmp    %r12,%rbx
  402962:	73 2a                	jae    40298e <rio_readlineb+0x71>
  402964:	48 8d 74 24 07       	lea    0x7(%rsp),%rsi
  402969:	ba 01 00 00 00       	mov    $0x1,%edx
  40296e:	4c 89 ef             	mov    %r13,%rdi
  402971:	e8 17 ff ff ff       	call   40288d <rio_read>
  402976:	83 f8 01             	cmp    $0x1,%eax
  402979:	75 cc                	jne    402947 <rio_readlineb+0x2a>
  40297b:	48 8d 55 01          	lea    0x1(%rbp),%rdx
  40297f:	0f b6 44 24 07       	movzbl 0x7(%rsp),%eax
  402984:	88 45 00             	mov    %al,0x0(%rbp)
  402987:	3c 0a                	cmp    $0xa,%al
  402989:	75 cd                	jne    402958 <rio_readlineb+0x3b>
  40298b:	48 89 d5             	mov    %rdx,%rbp
  40298e:	c6 45 00 00          	movb   $0x0,0x0(%rbp)
  402992:	48 89 d8             	mov    %rbx,%rax
  402995:	48 8b 54 24 08       	mov    0x8(%rsp),%rdx
  40299a:	64 48 2b 14 25 28 00 	sub    %fs:0x28,%rdx
  4029a1:	00 00 
  4029a3:	75 14                	jne    4029b9 <rio_readlineb+0x9c>
  4029a5:	48 83 c4 18          	add    $0x18,%rsp
  4029a9:	5b                   	pop    %rbx
  4029aa:	5d                   	pop    %rbp
  4029ab:	41 5c                	pop    %r12
  4029ad:	41 5d                	pop    %r13
  4029af:	c3                   	ret    
  4029b0:	48 c7 c0 ff ff ff ff 	mov    $0xffffffffffffffff,%rax
  4029b7:	eb dc                	jmp    402995 <rio_readlineb+0x78>
  4029b9:	e8 32 e9 ff ff       	call   4012f0 <__stack_chk_fail@plt>

00000000004029be <urlencode>:
  4029be:	41 54                	push   %r12
  4029c0:	55                   	push   %rbp
  4029c1:	53                   	push   %rbx
  4029c2:	48 83 ec 10          	sub    $0x10,%rsp
  4029c6:	48 89 fb             	mov    %rdi,%rbx
  4029c9:	48 89 f5             	mov    %rsi,%rbp
  4029cc:	64 48 8b 04 25 28 00 	mov    %fs:0x28,%rax
  4029d3:	00 00 
  4029d5:	48 89 44 24 08       	mov    %rax,0x8(%rsp)
  4029da:	31 c0                	xor    %eax,%eax
  4029dc:	e8 ff e8 ff ff       	call   4012e0 <strlen@plt>
  4029e1:	eb 0f                	jmp    4029f2 <urlencode+0x34>
  4029e3:	44 88 45 00          	mov    %r8b,0x0(%rbp)
  4029e7:	48 8d 6d 01          	lea    0x1(%rbp),%rbp
  4029eb:	48 83 c3 01          	add    $0x1,%rbx
  4029ef:	44 89 e0             	mov    %r12d,%eax
  4029f2:	44 8d 60 ff          	lea    -0x1(%rax),%r12d
  4029f6:	85 c0                	test   %eax,%eax
  4029f8:	0f 84 a8 00 00 00    	je     402aa6 <urlencode+0xe8>
  4029fe:	44 0f b6 03          	movzbl (%rbx),%r8d
  402a02:	41 80 f8 2a          	cmp    $0x2a,%r8b
  402a06:	0f 94 c0             	sete   %al
  402a09:	41 80 f8 2d          	cmp    $0x2d,%r8b
  402a0d:	0f 94 c2             	sete   %dl
  402a10:	08 d0                	or     %dl,%al
  402a12:	75 cf                	jne    4029e3 <urlencode+0x25>
  402a14:	41 80 f8 2e          	cmp    $0x2e,%r8b
  402a18:	74 c9                	je     4029e3 <urlencode+0x25>
  402a1a:	41 80 f8 5f          	cmp    $0x5f,%r8b
  402a1e:	74 c3                	je     4029e3 <urlencode+0x25>
  402a20:	41 8d 40 d0          	lea    -0x30(%r8),%eax
  402a24:	3c 09                	cmp    $0x9,%al
  402a26:	76 bb                	jbe    4029e3 <urlencode+0x25>
  402a28:	41 8d 40 bf          	lea    -0x41(%r8),%eax
  402a2c:	3c 19                	cmp    $0x19,%al
  402a2e:	76 b3                	jbe    4029e3 <urlencode+0x25>
  402a30:	41 8d 40 9f          	lea    -0x61(%r8),%eax
  402a34:	3c 19                	cmp    $0x19,%al
  402a36:	76 ab                	jbe    4029e3 <urlencode+0x25>
  402a38:	41 80 f8 20          	cmp    $0x20,%r8b
  402a3c:	74 56                	je     402a94 <urlencode+0xd6>
  402a3e:	41 8d 40 e0          	lea    -0x20(%r8),%eax
  402a42:	3c 5f                	cmp    $0x5f,%al
  402a44:	0f 96 c0             	setbe  %al
  402a47:	41 80 f8 09          	cmp    $0x9,%r8b
  402a4b:	0f 94 c2             	sete   %dl
  402a4e:	08 d0                	or     %dl,%al
  402a50:	74 4f                	je     402aa1 <urlencode+0xe3>
  402a52:	48 89 e7             	mov    %rsp,%rdi
  402a55:	45 0f b6 c0          	movzbl %r8b,%r8d
  402a59:	48 8d 0d 05 1d 00 00 	lea    0x1d05(%rip),%rcx        # 404765 <trans_char+0xa5>
  402a60:	ba 08 00 00 00       	mov    $0x8,%edx
  402a65:	be 01 00 00 00       	mov    $0x1,%esi
  402a6a:	b8 00 00 00 00       	mov    $0x0,%eax
  402a6f:	e8 fc e9 ff ff       	call   401470 <__sprintf_chk@plt>
  402a74:	0f b6 04 24          	movzbl (%rsp),%eax
  402a78:	88 45 00             	mov    %al,0x0(%rbp)
  402a7b:	0f b6 44 24 01       	movzbl 0x1(%rsp),%eax
  402a80:	88 45 01             	mov    %al,0x1(%rbp)
  402a83:	0f b6 44 24 02       	movzbl 0x2(%rsp),%eax
  402a88:	88 45 02             	mov    %al,0x2(%rbp)
  402a8b:	48 8d 6d 03          	lea    0x3(%rbp),%rbp
  402a8f:	e9 57 ff ff ff       	jmp    4029eb <urlencode+0x2d>
  402a94:	c6 45 00 2b          	movb   $0x2b,0x0(%rbp)
  402a98:	48 8d 6d 01          	lea    0x1(%rbp),%rbp
  402a9c:	e9 4a ff ff ff       	jmp    4029eb <urlencode+0x2d>
  402aa1:	b8 ff ff ff ff       	mov    $0xffffffff,%eax
  402aa6:	48 8b 54 24 08       	mov    0x8(%rsp),%rdx
  402aab:	64 48 2b 14 25 28 00 	sub    %fs:0x28,%rdx
  402ab2:	00 00 
  402ab4:	75 09                	jne    402abf <urlencode+0x101>
  402ab6:	48 83 c4 10          	add    $0x10,%rsp
  402aba:	5b                   	pop    %rbx
  402abb:	5d                   	pop    %rbp
  402abc:	41 5c                	pop    %r12
  402abe:	c3                   	ret    
  402abf:	e8 2c e8 ff ff       	call   4012f0 <__stack_chk_fail@plt>

0000000000402ac4 <submitr>:
  402ac4:	f3 0f 1e fa          	endbr64 
  402ac8:	41 57                	push   %r15
  402aca:	41 56                	push   %r14
  402acc:	41 55                	push   %r13
  402ace:	41 54                	push   %r12
  402ad0:	55                   	push   %rbp
  402ad1:	53                   	push   %rbx
  402ad2:	4c 8d 9c 24 00 60 ff 	lea    -0xa000(%rsp),%r11
  402ad9:	ff 
  402ada:	48 81 ec 00 10 00 00 	sub    $0x1000,%rsp
  402ae1:	48 83 0c 24 00       	orq    $0x0,(%rsp)
  402ae6:	4c 39 dc             	cmp    %r11,%rsp
  402ae9:	75 ef                	jne    402ada <submitr+0x16>
  402aeb:	48 83 ec 68          	sub    $0x68,%rsp
  402aef:	49 89 fc             	mov    %rdi,%r12
  402af2:	89 74 24 10          	mov    %esi,0x10(%rsp)
  402af6:	49 89 d6             	mov    %rdx,%r14
  402af9:	48 89 4c 24 08       	mov    %rcx,0x8(%rsp)
  402afe:	4c 89 44 24 18       	mov    %r8,0x18(%rsp)
  402b03:	4d 89 cd             	mov    %r9,%r13
  402b06:	48 8b ac 24 a0 a0 00 	mov    0xa0a0(%rsp),%rbp
  402b0d:	00 
  402b0e:	64 48 8b 04 25 28 00 	mov    %fs:0x28,%rax
  402b15:	00 00 
  402b17:	48 89 84 24 58 a0 00 	mov    %rax,0xa058(%rsp)
  402b1e:	00 
  402b1f:	31 c0                	xor    %eax,%eax
  402b21:	c7 44 24 2c 00 00 00 	movl   $0x0,0x2c(%rsp)
  402b28:	00 
  402b29:	ba 00 00 00 00       	mov    $0x0,%edx
  402b2e:	be 01 00 00 00       	mov    $0x1,%esi
  402b33:	bf 02 00 00 00       	mov    $0x2,%edi
  402b38:	e8 43 e9 ff ff       	call   401480 <socket@plt>
  402b3d:	85 c0                	test   %eax,%eax
  402b3f:	0f 88 77 02 00 00    	js     402dbc <submitr+0x2f8>
  402b45:	89 c3                	mov    %eax,%ebx
  402b47:	4c 89 e7             	mov    %r12,%rdi
  402b4a:	e8 11 e8 ff ff       	call   401360 <gethostbyname@plt>
  402b4f:	48 85 c0             	test   %rax,%rax
  402b52:	0f 84 b0 02 00 00    	je     402e08 <submitr+0x344>
  402b58:	4c 8d 7c 24 30       	lea    0x30(%rsp),%r15
  402b5d:	48 c7 44 24 30 00 00 	movq   $0x0,0x30(%rsp)
  402b64:	00 00 
  402b66:	48 c7 44 24 38 00 00 	movq   $0x0,0x38(%rsp)
  402b6d:	00 00 
  402b6f:	66 c7 44 24 30 02 00 	movw   $0x2,0x30(%rsp)
  402b76:	48 63 50 14          	movslq 0x14(%rax),%rdx
  402b7a:	48 8b 40 18          	mov    0x18(%rax),%rax
  402b7e:	48 8b 30             	mov    (%rax),%rsi
  402b81:	48 8d 7c 24 34       	lea    0x34(%rsp),%rdi
  402b86:	b9 0c 00 00 00       	mov    $0xc,%ecx
  402b8b:	e8 e0 e7 ff ff       	call   401370 <__memmove_chk@plt>
  402b90:	0f b7 44 24 10       	movzwl 0x10(%rsp),%eax
  402b95:	66 c1 c0 08          	rol    $0x8,%ax
  402b99:	66 89 44 24 32       	mov    %ax,0x32(%rsp)
  402b9e:	ba 10 00 00 00       	mov    $0x10,%edx
  402ba3:	4c 89 fe             	mov    %r15,%rsi
  402ba6:	89 df                	mov    %ebx,%edi
  402ba8:	e8 93 e8 ff ff       	call   401440 <connect@plt>
  402bad:	85 c0                	test   %eax,%eax
  402baf:	0f 88 bb 02 00 00    	js     402e70 <submitr+0x3ac>
  402bb5:	4c 89 ef             	mov    %r13,%rdi
  402bb8:	e8 23 e7 ff ff       	call   4012e0 <strlen@plt>
  402bbd:	49 89 c7             	mov    %rax,%r15
  402bc0:	4c 89 f7             	mov    %r14,%rdi
  402bc3:	e8 18 e7 ff ff       	call   4012e0 <strlen@plt>
  402bc8:	48 89 44 24 10       	mov    %rax,0x10(%rsp)
  402bcd:	48 8b 7c 24 08       	mov    0x8(%rsp),%rdi
  402bd2:	e8 09 e7 ff ff       	call   4012e0 <strlen@plt>
  402bd7:	48 03 44 24 10       	add    0x10(%rsp),%rax
  402bdc:	48 89 44 24 10       	mov    %rax,0x10(%rsp)
  402be1:	48 8b 7c 24 18       	mov    0x18(%rsp),%rdi
  402be6:	e8 f5 e6 ff ff       	call   4012e0 <strlen@plt>
  402beb:	48 03 44 24 10       	add    0x10(%rsp),%rax
  402bf0:	4b 8d 14 7f          	lea    (%r15,%r15,2),%rdx
  402bf4:	48 8d 84 10 80 00 00 	lea    0x80(%rax,%rdx,1),%rax
  402bfb:	00 
  402bfc:	48 3d 00 20 00 00    	cmp    $0x2000,%rax
  402c02:	0f 87 c2 02 00 00    	ja     402eca <submitr+0x406>
  402c08:	48 8d b4 24 50 40 00 	lea    0x4050(%rsp),%rsi
  402c0f:	00 
  402c10:	b9 00 04 00 00       	mov    $0x400,%ecx
  402c15:	b8 00 00 00 00       	mov    $0x0,%eax
  402c1a:	48 89 f7             	mov    %rsi,%rdi
  402c1d:	f3 48 ab             	rep stos %rax,%es:(%rdi)
  402c20:	4c 89 ef             	mov    %r13,%rdi
  402c23:	e8 96 fd ff ff       	call   4029be <urlencode>
  402c28:	85 c0                	test   %eax,%eax
  402c2a:	0f 88 0d 03 00 00    	js     402f3d <submitr+0x479>
  402c30:	4c 8d bc 24 50 20 00 	lea    0x2050(%rsp),%r15
  402c37:	00 
  402c38:	41 54                	push   %r12
  402c3a:	48 8d 84 24 58 40 00 	lea    0x4058(%rsp),%rax
  402c41:	00 
  402c42:	50                   	push   %rax
  402c43:	4d 89 f1             	mov    %r14,%r9
  402c46:	4c 8b 44 24 18       	mov    0x18(%rsp),%r8
  402c4b:	48 8d 0d a6 1a 00 00 	lea    0x1aa6(%rip),%rcx        # 4046f8 <trans_char+0x38>
  402c52:	ba 00 20 00 00       	mov    $0x2000,%edx
  402c57:	be 01 00 00 00       	mov    $0x1,%esi
  402c5c:	4c 89 ff             	mov    %r15,%rdi
  402c5f:	b8 00 00 00 00       	mov    $0x0,%eax
  402c64:	e8 07 e8 ff ff       	call   401470 <__sprintf_chk@plt>
  402c69:	4c 89 ff             	mov    %r15,%rdi
  402c6c:	e8 6f e6 ff ff       	call   4012e0 <strlen@plt>
  402c71:	48 89 c2             	mov    %rax,%rdx
  402c74:	4c 89 fe             	mov    %r15,%rsi
  402c77:	89 df                	mov    %ebx,%edi
  402c79:	e8 b1 fb ff ff       	call   40282f <rio_writen>
  402c7e:	48 83 c4 10          	add    $0x10,%rsp
  402c82:	48 85 c0             	test   %rax,%rax
  402c85:	0f 88 3d 03 00 00    	js     402fc8 <submitr+0x504>
  402c8b:	4c 8d 64 24 40       	lea    0x40(%rsp),%r12
  402c90:	89 de                	mov    %ebx,%esi
  402c92:	4c 89 e7             	mov    %r12,%rdi
  402c95:	e8 4d fb ff ff       	call   4027e7 <rio_readinitb>
  402c9a:	48 8d b4 24 50 20 00 	lea    0x2050(%rsp),%rsi
  402ca1:	00 
  402ca2:	ba 00 20 00 00       	mov    $0x2000,%edx
  402ca7:	4c 89 e7             	mov    %r12,%rdi
  402caa:	e8 6e fc ff ff       	call   40291d <rio_readlineb>
  402caf:	48 85 c0             	test   %rax,%rax
  402cb2:	0f 8e 7f 03 00 00    	jle    403037 <submitr+0x573>
  402cb8:	48 8d 4c 24 2c       	lea    0x2c(%rsp),%rcx
  402cbd:	48 8d 94 24 50 60 00 	lea    0x6050(%rsp),%rdx
  402cc4:	00 
  402cc5:	48 8d bc 24 50 20 00 	lea    0x2050(%rsp),%rdi
  402ccc:	00 
  402ccd:	4c 8d 84 24 50 80 00 	lea    0x8050(%rsp),%r8
  402cd4:	00 
  402cd5:	48 8d 35 90 1a 00 00 	lea    0x1a90(%rip),%rsi        # 40476c <trans_char+0xac>
  402cdc:	b8 00 00 00 00       	mov    $0x0,%eax
  402ce1:	e8 da e6 ff ff       	call   4013c0 <__isoc99_sscanf@plt>
  402ce6:	48 8d bc 24 50 20 00 	lea    0x2050(%rsp),%rdi
  402ced:	00 
  402cee:	48 8d 35 8e 1a 00 00 	lea    0x1a8e(%rip),%rsi        # 404783 <trans_char+0xc3>
  402cf5:	e8 46 e6 ff ff       	call   401340 <strcmp@plt>
  402cfa:	85 c0                	test   %eax,%eax
  402cfc:	0f 84 b3 03 00 00    	je     4030b5 <submitr+0x5f1>
  402d02:	48 8d b4 24 50 20 00 	lea    0x2050(%rsp),%rsi
  402d09:	00 
  402d0a:	48 8d 7c 24 40       	lea    0x40(%rsp),%rdi
  402d0f:	ba 00 20 00 00       	mov    $0x2000,%edx
  402d14:	e8 04 fc ff ff       	call   40291d <rio_readlineb>
  402d19:	48 85 c0             	test   %rax,%rax
  402d1c:	7f c8                	jg     402ce6 <submitr+0x222>
  402d1e:	48 b8 45 72 72 6f 72 	movabs $0x43203a726f727245,%rax
  402d25:	3a 20 43 
  402d28:	48 ba 6c 69 65 6e 74 	movabs $0x6e7520746e65696c,%rdx
  402d2f:	20 75 6e 
  402d32:	48 89 45 00          	mov    %rax,0x0(%rbp)
  402d36:	48 89 55 08          	mov    %rdx,0x8(%rbp)
  402d3a:	48 b8 61 62 6c 65 20 	movabs $0x206f7420656c6261,%rax
  402d41:	74 6f 20 
  402d44:	48 ba 72 65 61 64 20 	movabs $0x6165682064616572,%rdx
  402d4b:	68 65 61 
  402d4e:	48 89 45 10          	mov    %rax,0x10(%rbp)
  402d52:	48 89 55 18          	mov    %rdx,0x18(%rbp)
  402d56:	48 b8 64 65 72 73 20 	movabs $0x6f72662073726564,%rax
  402d5d:	66 72 6f 
  402d60:	48 ba 6d 20 74 68 65 	movabs $0x657220656874206d,%rdx
  402d67:	20 72 65 
  402d6a:	48 89 45 20          	mov    %rax,0x20(%rbp)
  402d6e:	48 89 55 28          	mov    %rdx,0x28(%rbp)
  402d72:	48 b8 73 75 6c 74 20 	movabs $0x72657320746c7573,%rax
  402d79:	73 65 72 
  402d7c:	48 89 45 30          	mov    %rax,0x30(%rbp)
  402d80:	c7 45 38 76 65 72 00 	movl   $0x726576,0x38(%rbp)
  402d87:	89 df                	mov    %ebx,%edi
  402d89:	e8 a2 e5 ff ff       	call   401330 <close@plt>
  402d8e:	b8 ff ff ff ff       	mov    $0xffffffff,%eax
  402d93:	48 8b 94 24 58 a0 00 	mov    0xa058(%rsp),%rdx
  402d9a:	00 
  402d9b:	64 48 2b 14 25 28 00 	sub    %fs:0x28,%rdx
  402da2:	00 00 
  402da4:	0f 85 5c 04 00 00    	jne    403206 <submitr+0x742>
  402daa:	48 81 c4 68 a0 00 00 	add    $0xa068,%rsp
  402db1:	5b                   	pop    %rbx
  402db2:	5d                   	pop    %rbp
  402db3:	41 5c                	pop    %r12
  402db5:	41 5d                	pop    %r13
  402db7:	41 5e                	pop    %r14
  402db9:	41 5f                	pop    %r15
  402dbb:	c3                   	ret    
  402dbc:	48 b8 45 72 72 6f 72 	movabs $0x43203a726f727245,%rax
  402dc3:	3a 20 43 
  402dc6:	48 ba 6c 69 65 6e 74 	movabs $0x6e7520746e65696c,%rdx
  402dcd:	20 75 6e 
  402dd0:	48 89 45 00          	mov    %rax,0x0(%rbp)
  402dd4:	48 89 55 08          	mov    %rdx,0x8(%rbp)
  402dd8:	48 b8 61 62 6c 65 20 	movabs $0x206f7420656c6261,%rax
  402ddf:	74 6f 20 
  402de2:	48 ba 63 72 65 61 74 	movabs $0x7320657461657263,%rdx
  402de9:	65 20 73 
  402dec:	48 89 45 10          	mov    %rax,0x10(%rbp)
  402df0:	48 89 55 18          	mov    %rdx,0x18(%rbp)
  402df4:	c7 45 20 6f 63 6b 65 	movl   $0x656b636f,0x20(%rbp)
  402dfb:	66 c7 45 24 74 00    	movw   $0x74,0x24(%rbp)
  402e01:	b8 ff ff ff ff       	mov    $0xffffffff,%eax
  402e06:	eb 8b                	jmp    402d93 <submitr+0x2cf>
  402e08:	48 b8 45 72 72 6f 72 	movabs $0x44203a726f727245,%rax
  402e0f:	3a 20 44 
  402e12:	48 ba 4e 53 20 69 73 	movabs $0x6e7520736920534e,%rdx
  402e19:	20 75 6e 
  402e1c:	48 89 45 00          	mov    %rax,0x0(%rbp)
  402e20:	48 89 55 08          	mov    %rdx,0x8(%rbp)
  402e24:	48 b8 61 62 6c 65 20 	movabs $0x206f7420656c6261,%rax
  402e2b:	74 6f 20 
  402e2e:	48 ba 72 65 73 6f 6c 	movabs $0x2065766c6f736572,%rdx
  402e35:	76 65 20 
  402e38:	48 89 45 10          	mov    %rax,0x10(%rbp)
  402e3c:	48 89 55 18          	mov    %rdx,0x18(%rbp)
  402e40:	48 b8 73 65 72 76 65 	movabs $0x6120726576726573,%rax
  402e47:	72 20 61 
  402e4a:	48 89 45 20          	mov    %rax,0x20(%rbp)
  402e4e:	c7 45 28 64 64 72 65 	movl   $0x65726464,0x28(%rbp)
  402e55:	66 c7 45 2c 73 73    	movw   $0x7373,0x2c(%rbp)
  402e5b:	c6 45 2e 00          	movb   $0x0,0x2e(%rbp)
  402e5f:	89 df                	mov    %ebx,%edi
  402e61:	e8 ca e4 ff ff       	call   401330 <close@plt>
  402e66:	b8 ff ff ff ff       	mov    $0xffffffff,%eax
  402e6b:	e9 23 ff ff ff       	jmp    402d93 <submitr+0x2cf>
  402e70:	48 b8 45 72 72 6f 72 	movabs $0x55203a726f727245,%rax
  402e77:	3a 20 55 
  402e7a:	48 ba 6e 61 62 6c 65 	movabs $0x6f7420656c62616e,%rdx
  402e81:	20 74 6f 
  402e84:	48 89 45 00          	mov    %rax,0x0(%rbp)
  402e88:	48 89 55 08          	mov    %rdx,0x8(%rbp)
  402e8c:	48 b8 20 63 6f 6e 6e 	movabs $0x7463656e6e6f6320,%rax
  402e93:	65 63 74 
  402e96:	48 ba 20 74 6f 20 74 	movabs $0x20656874206f7420,%rdx
  402e9d:	68 65 20 
  402ea0:	48 89 45 10          	mov    %rax,0x10(%rbp)
  402ea4:	48 89 55 18          	mov    %rdx,0x18(%rbp)
  402ea8:	c7 45 20 73 65 72 76 	movl   $0x76726573,0x20(%rbp)
  402eaf:	66 c7 45 24 65 72    	movw   $0x7265,0x24(%rbp)
  402eb5:	c6 45 26 00          	movb   $0x0,0x26(%rbp)
  402eb9:	89 df                	mov    %ebx,%edi
  402ebb:	e8 70 e4 ff ff       	call   401330 <close@plt>
  402ec0:	b8 ff ff ff ff       	mov    $0xffffffff,%eax
  402ec5:	e9 c9 fe ff ff       	jmp    402d93 <submitr+0x2cf>
  402eca:	48 b8 45 72 72 6f 72 	movabs $0x52203a726f727245,%rax
  402ed1:	3a 20 52 
  402ed4:	48 ba 65 73 75 6c 74 	movabs $0x747320746c757365,%rdx
  402edb:	20 73 74 
  402ede:	48 89 45 00          	mov    %rax,0x0(%rbp)
  402ee2:	48 89 55 08          	mov    %rdx,0x8(%rbp)
  402ee6:	48 b8 72 69 6e 67 20 	movabs $0x6f6f7420676e6972,%rax
  402eed:	74 6f 6f 
  402ef0:	48 ba 20 6c 61 72 67 	movabs $0x202e656772616c20,%rdx
  402ef7:	65 2e 20 
  402efa:	48 89 45 10          	mov    %rax,0x10(%rbp)
  402efe:	48 89 55 18          	mov    %rdx,0x18(%rbp)
  402f02:	48 b8 49 6e 63 72 65 	movabs $0x6573616572636e49,%rax
  402f09:	61 73 65 
  402f0c:	48 ba 20 53 55 42 4d 	movabs $0x5254494d42555320,%rdx
  402f13:	49 54 52 
  402f16:	48 89 45 20          	mov    %rax,0x20(%rbp)
  402f1a:	48 89 55 28          	mov    %rdx,0x28(%rbp)
  402f1e:	48 b8 5f 4d 41 58 42 	movabs $0x46554258414d5f,%rax
  402f25:	55 46 00 
  402f28:	48 89 45 30          	mov    %rax,0x30(%rbp)
  402f2c:	89 df                	mov    %ebx,%edi
  402f2e:	e8 fd e3 ff ff       	call   401330 <close@plt>
  402f33:	b8 ff ff ff ff       	mov    $0xffffffff,%eax
  402f38:	e9 56 fe ff ff       	jmp    402d93 <submitr+0x2cf>
  402f3d:	48 b8 45 72 72 6f 72 	movabs $0x52203a726f727245,%rax
  402f44:	3a 20 52 
  402f47:	48 ba 65 73 75 6c 74 	movabs $0x747320746c757365,%rdx
  402f4e:	20 73 74 
  402f51:	48 89 45 00          	mov    %rax,0x0(%rbp)
  402f55:	48 89 55 08          	mov    %rdx,0x8(%rbp)
  402f59:	48 b8 72 69 6e 67 20 	movabs $0x6e6f6320676e6972,%rax
  402f60:	63 6f 6e 
  402f63:	48 ba 74 61 69 6e 73 	movabs $0x6e6120736e696174,%rdx
  402f6a:	20 61 6e 
  402f6d:	48 89 45 10          	mov    %rax,0x10(%rbp)
  402f71:	48 89 55 18          	mov    %rdx,0x18(%rbp)
  402f75:	48 b8 20 69 6c 6c 65 	movabs $0x6c6167656c6c6920,%rax
  402f7c:	67 61 6c 
  402f7f:	48 ba 20 6f 72 20 75 	movabs $0x72706e7520726f20,%rdx
  402f86:	6e 70 72 
  402f89:	48 89 45 20          	mov    %rax,0x20(%rbp)
  402f8d:	48 89 55 28          	mov    %rdx,0x28(%rbp)
  402f91:	48 b8 69 6e 74 61 62 	movabs $0x20656c6261746e69,%rax
  402f98:	6c 65 20 
  402f9b:	48 ba 63 68 61 72 61 	movabs $0x6574636172616863,%rdx
  402fa2:	63 74 65 
  402fa5:	48 89 45 30          	mov    %rax,0x30(%rbp)
  402fa9:	48 89 55 38          	mov    %rdx,0x38(%rbp)
  402fad:	66 c7 45 40 72 2e    	movw   $0x2e72,0x40(%rbp)
  402fb3:	c6 45 42 00          	movb   $0x0,0x42(%rbp)
  402fb7:	89 df                	mov    %ebx,%edi
  402fb9:	e8 72 e3 ff ff       	call   401330 <close@plt>
  402fbe:	b8 ff ff ff ff       	mov    $0xffffffff,%eax
  402fc3:	e9 cb fd ff ff       	jmp    402d93 <submitr+0x2cf>
  402fc8:	48 b8 45 72 72 6f 72 	movabs $0x43203a726f727245,%rax
  402fcf:	3a 20 43 
  402fd2:	48 ba 6c 69 65 6e 74 	movabs $0x6e7520746e65696c,%rdx
  402fd9:	20 75 6e 
  402fdc:	48 89 45 00          	mov    %rax,0x0(%rbp)
  402fe0:	48 89 55 08          	mov    %rdx,0x8(%rbp)
  402fe4:	48 b8 61 62 6c 65 20 	movabs $0x206f7420656c6261,%rax
  402feb:	74 6f 20 
  402fee:	48 ba 77 72 69 74 65 	movabs $0x6f74206574697277,%rdx
  402ff5:	20 74 6f 
  402ff8:	48 89 45 10          	mov    %rax,0x10(%rbp)
  402ffc:	48 89 55 18          	mov    %rdx,0x18(%rbp)
  403000:	48 b8 20 74 68 65 20 	movabs $0x7365722065687420,%rax
  403007:	72 65 73 
  40300a:	48 ba 75 6c 74 20 73 	movabs $0x7672657320746c75,%rdx
  403011:	65 72 76 
  403014:	48 89 45 20          	mov    %rax,0x20(%rbp)
  403018:	48 89 55 28          	mov    %rdx,0x28(%rbp)
  40301c:	66 c7 45 30 65 72    	movw   $0x7265,0x30(%rbp)
  403022:	c6 45 32 00          	movb   $0x0,0x32(%rbp)
  403026:	89 df                	mov    %ebx,%edi
  403028:	e8 03 e3 ff ff       	call   401330 <close@plt>
  40302d:	b8 ff ff ff ff       	mov    $0xffffffff,%eax
  403032:	e9 5c fd ff ff       	jmp    402d93 <submitr+0x2cf>
  403037:	48 b8 45 72 72 6f 72 	movabs $0x43203a726f727245,%rax
  40303e:	3a 20 43 
  403041:	48 ba 6c 69 65 6e 74 	movabs $0x6e7520746e65696c,%rdx
  403048:	20 75 6e 
  40304b:	48 89 45 00          	mov    %rax,0x0(%rbp)
  40304f:	48 89 55 08          	mov    %rdx,0x8(%rbp)
  403053:	48 b8 61 62 6c 65 20 	movabs $0x206f7420656c6261,%rax
  40305a:	74 6f 20 
  40305d:	48 ba 72 65 61 64 20 	movabs $0x7269662064616572,%rdx
  403064:	66 69 72 
  403067:	48 89 45 10          	mov    %rax,0x10(%rbp)
  40306b:	48 89 55 18          	mov    %rdx,0x18(%rbp)
  40306f:	48 b8 73 74 20 68 65 	movabs $0x6564616568207473,%rax
  403076:	61 64 65 
  403079:	48 ba 72 20 66 72 6f 	movabs $0x72206d6f72662072,%rdx
  403080:	6d 20 72 
  403083:	48 89 45 20          	mov    %rax,0x20(%rbp)
  403087:	48 89 55 28          	mov    %rdx,0x28(%rbp)
  40308b:	48 b8 65 73 75 6c 74 	movabs $0x657320746c757365,%rax
  403092:	20 73 65 
  403095:	48 89 45 30          	mov    %rax,0x30(%rbp)
  403099:	c7 45 38 72 76 65 72 	movl   $0x72657672,0x38(%rbp)
  4030a0:	c6 45 3c 00          	movb   $0x0,0x3c(%rbp)
  4030a4:	89 df                	mov    %ebx,%edi
  4030a6:	e8 85 e2 ff ff       	call   401330 <close@plt>
  4030ab:	b8 ff ff ff ff       	mov    $0xffffffff,%eax
  4030b0:	e9 de fc ff ff       	jmp    402d93 <submitr+0x2cf>
  4030b5:	48 8d b4 24 50 20 00 	lea    0x2050(%rsp),%rsi
  4030bc:	00 
  4030bd:	48 8d 7c 24 40       	lea    0x40(%rsp),%rdi
  4030c2:	ba 00 20 00 00       	mov    $0x2000,%edx
  4030c7:	e8 51 f8 ff ff       	call   40291d <rio_readlineb>
  4030cc:	48 85 c0             	test   %rax,%rax
  4030cf:	7e 78                	jle    403149 <submitr+0x685>
  4030d1:	44 8b 44 24 2c       	mov    0x2c(%rsp),%r8d
  4030d6:	41 81 f8 c8 00 00 00 	cmp    $0xc8,%r8d
  4030dd:	0f 85 ea 00 00 00    	jne    4031cd <submitr+0x709>
  4030e3:	48 8d b4 24 50 20 00 	lea    0x2050(%rsp),%rsi
  4030ea:	00 
  4030eb:	48 89 ef             	mov    %rbp,%rdi
  4030ee:	e8 ad e1 ff ff       	call   4012a0 <strcpy@plt>
  4030f3:	89 df                	mov    %ebx,%edi
  4030f5:	e8 36 e2 ff ff       	call   401330 <close@plt>
  4030fa:	48 8d 35 7c 16 00 00 	lea    0x167c(%rip),%rsi        # 40477d <trans_char+0xbd>
  403101:	48 89 ef             	mov    %rbp,%rdi
  403104:	e8 37 e2 ff ff       	call   401340 <strcmp@plt>
  403109:	85 c0                	test   %eax,%eax
  40310b:	0f 84 82 fc ff ff    	je     402d93 <submitr+0x2cf>
  403111:	48 8d 35 69 16 00 00 	lea    0x1669(%rip),%rsi        # 404781 <trans_char+0xc1>
  403118:	48 89 ef             	mov    %rbp,%rdi
  40311b:	e8 20 e2 ff ff       	call   401340 <strcmp@plt>
  403120:	85 c0                	test   %eax,%eax
  403122:	0f 84 6b fc ff ff    	je     402d93 <submitr+0x2cf>
  403128:	48 8d 35 57 16 00 00 	lea    0x1657(%rip),%rsi        # 404786 <trans_char+0xc6>
  40312f:	48 89 ef             	mov    %rbp,%rdi
  403132:	e8 09 e2 ff ff       	call   401340 <strcmp@plt>
  403137:	85 c0                	test   %eax,%eax
  403139:	0f 84 54 fc ff ff    	je     402d93 <submitr+0x2cf>
  40313f:	b8 ff ff ff ff       	mov    $0xffffffff,%eax
  403144:	e9 4a fc ff ff       	jmp    402d93 <submitr+0x2cf>
  403149:	48 b8 45 72 72 6f 72 	movabs $0x43203a726f727245,%rax
  403150:	3a 20 43 
  403153:	48 ba 6c 69 65 6e 74 	movabs $0x6e7520746e65696c,%rdx
  40315a:	20 75 6e 
  40315d:	48 89 45 00          	mov    %rax,0x0(%rbp)
  403161:	48 89 55 08          	mov    %rdx,0x8(%rbp)
  403165:	48 b8 61 62 6c 65 20 	movabs $0x206f7420656c6261,%rax
  40316c:	74 6f 20 
  40316f:	48 ba 72 65 61 64 20 	movabs $0x6174732064616572,%rdx
  403176:	73 74 61 
  403179:	48 89 45 10          	mov    %rax,0x10(%rbp)
  40317d:	48 89 55 18          	mov    %rdx,0x18(%rbp)
  403181:	48 b8 74 75 73 20 6d 	movabs $0x7373656d20737574,%rax
  403188:	65 73 73 
  40318b:	48 ba 61 67 65 20 66 	movabs $0x6d6f726620656761,%rdx
  403192:	72 6f 6d 
  403195:	48 89 45 20          	mov    %rax,0x20(%rbp)
  403199:	48 89 55 28          	mov    %rdx,0x28(%rbp)
  40319d:	48 b8 20 72 65 73 75 	movabs $0x20746c7573657220,%rax
  4031a4:	6c 74 20 
  4031a7:	48 89 45 30          	mov    %rax,0x30(%rbp)
  4031ab:	c7 45 38 73 65 72 76 	movl   $0x76726573,0x38(%rbp)
  4031b2:	66 c7 45 3c 65 72    	movw   $0x7265,0x3c(%rbp)
  4031b8:	c6 45 3e 00          	movb   $0x0,0x3e(%rbp)
  4031bc:	89 df                	mov    %ebx,%edi
  4031be:	e8 6d e1 ff ff       	call   401330 <close@plt>
  4031c3:	b8 ff ff ff ff       	mov    $0xffffffff,%eax
  4031c8:	e9 c6 fb ff ff       	jmp    402d93 <submitr+0x2cf>
  4031cd:	4c 8d 8c 24 50 80 00 	lea    0x8050(%rsp),%r9
  4031d4:	00 
  4031d5:	48 8d 0d 5c 15 00 00 	lea    0x155c(%rip),%rcx        # 404738 <trans_char+0x78>
  4031dc:	48 c7 c2 ff ff ff ff 	mov    $0xffffffffffffffff,%rdx
  4031e3:	be 01 00 00 00       	mov    $0x1,%esi
  4031e8:	48 89 ef             	mov    %rbp,%rdi
  4031eb:	b8 00 00 00 00       	mov    $0x0,%eax
  4031f0:	e8 7b e2 ff ff       	call   401470 <__sprintf_chk@plt>
  4031f5:	89 df                	mov    %ebx,%edi
  4031f7:	e8 34 e1 ff ff       	call   401330 <close@plt>
  4031fc:	b8 ff ff ff ff       	mov    $0xffffffff,%eax
  403201:	e9 8d fb ff ff       	jmp    402d93 <submitr+0x2cf>
  403206:	e8 e5 e0 ff ff       	call   4012f0 <__stack_chk_fail@plt>

000000000040320b <init_timeout>:
  40320b:	f3 0f 1e fa          	endbr64 
  40320f:	85 ff                	test   %edi,%edi
  403211:	74 26                	je     403239 <init_timeout+0x2e>
  403213:	53                   	push   %rbx
  403214:	89 fb                	mov    %edi,%ebx
  403216:	78 1a                	js     403232 <init_timeout+0x27>
  403218:	48 8d 35 da f5 ff ff 	lea    -0xa26(%rip),%rsi        # 4027f9 <sigalrm_handler>
  40321f:	bf 0e 00 00 00       	mov    $0xe,%edi
  403224:	e8 27 e1 ff ff       	call   401350 <signal@plt>
  403229:	89 df                	mov    %ebx,%edi
  40322b:	e8 f0 e0 ff ff       	call   401320 <alarm@plt>
  403230:	5b                   	pop    %rbx
  403231:	c3                   	ret    
  403232:	bb 00 00 00 00       	mov    $0x0,%ebx
  403237:	eb df                	jmp    403218 <init_timeout+0xd>
  403239:	c3                   	ret    

000000000040323a <init_driver>:
  40323a:	f3 0f 1e fa          	endbr64 
  40323e:	41 54                	push   %r12
  403240:	55                   	push   %rbp
  403241:	53                   	push   %rbx
  403242:	48 83 ec 20          	sub    $0x20,%rsp
  403246:	48 89 fd             	mov    %rdi,%rbp
  403249:	64 48 8b 04 25 28 00 	mov    %fs:0x28,%rax
  403250:	00 00 
  403252:	48 89 44 24 18       	mov    %rax,0x18(%rsp)
  403257:	31 c0                	xor    %eax,%eax
  403259:	be 01 00 00 00       	mov    $0x1,%esi
  40325e:	bf 0d 00 00 00       	mov    $0xd,%edi
  403263:	e8 e8 e0 ff ff       	call   401350 <signal@plt>
  403268:	be 01 00 00 00       	mov    $0x1,%esi
  40326d:	bf 1d 00 00 00       	mov    $0x1d,%edi
  403272:	e8 d9 e0 ff ff       	call   401350 <signal@plt>
  403277:	be 01 00 00 00       	mov    $0x1,%esi
  40327c:	bf 1d 00 00 00       	mov    $0x1d,%edi
  403281:	e8 ca e0 ff ff       	call   401350 <signal@plt>
  403286:	ba 00 00 00 00       	mov    $0x0,%edx
  40328b:	be 01 00 00 00       	mov    $0x1,%esi
  403290:	bf 02 00 00 00       	mov    $0x2,%edi
  403295:	e8 e6 e1 ff ff       	call   401480 <socket@plt>
  40329a:	85 c0                	test   %eax,%eax
  40329c:	0f 88 9c 00 00 00    	js     40333e <init_driver+0x104>
  4032a2:	89 c3                	mov    %eax,%ebx
  4032a4:	48 8d 3d de 14 00 00 	lea    0x14de(%rip),%rdi        # 404789 <trans_char+0xc9>
  4032ab:	e8 b0 e0 ff ff       	call   401360 <gethostbyname@plt>
  4032b0:	48 85 c0             	test   %rax,%rax
  4032b3:	0f 84 d1 00 00 00    	je     40338a <init_driver+0x150>
  4032b9:	49 89 e4             	mov    %rsp,%r12
  4032bc:	48 c7 04 24 00 00 00 	movq   $0x0,(%rsp)
  4032c3:	00 
  4032c4:	48 c7 44 24 08 00 00 	movq   $0x0,0x8(%rsp)
  4032cb:	00 00 
  4032cd:	66 c7 04 24 02 00    	movw   $0x2,(%rsp)
  4032d3:	48 63 50 14          	movslq 0x14(%rax),%rdx
  4032d7:	48 8b 40 18          	mov    0x18(%rax),%rax
  4032db:	48 8b 30             	mov    (%rax),%rsi
  4032de:	48 8d 7c 24 04       	lea    0x4(%rsp),%rdi
  4032e3:	b9 0c 00 00 00       	mov    $0xc,%ecx
  4032e8:	e8 83 e0 ff ff       	call   401370 <__memmove_chk@plt>
  4032ed:	66 c7 44 24 02 3c 9a 	movw   $0x9a3c,0x2(%rsp)
  4032f4:	ba 10 00 00 00       	mov    $0x10,%edx
  4032f9:	4c 89 e6             	mov    %r12,%rsi
  4032fc:	89 df                	mov    %ebx,%edi
  4032fe:	e8 3d e1 ff ff       	call   401440 <connect@plt>
  403303:	85 c0                	test   %eax,%eax
  403305:	0f 88 e7 00 00 00    	js     4033f2 <init_driver+0x1b8>
  40330b:	89 df                	mov    %ebx,%edi
  40330d:	e8 1e e0 ff ff       	call   401330 <close@plt>
  403312:	66 c7 45 00 4f 4b    	movw   $0x4b4f,0x0(%rbp)
  403318:	c6 45 02 00          	movb   $0x0,0x2(%rbp)
  40331c:	b8 00 00 00 00       	mov    $0x0,%eax
  403321:	48 8b 54 24 18       	mov    0x18(%rsp),%rdx
  403326:	64 48 2b 14 25 28 00 	sub    %fs:0x28,%rdx
  40332d:	00 00 
  40332f:	0f 85 2f 01 00 00    	jne    403464 <init_driver+0x22a>
  403335:	48 83 c4 20          	add    $0x20,%rsp
  403339:	5b                   	pop    %rbx
  40333a:	5d                   	pop    %rbp
  40333b:	41 5c                	pop    %r12
  40333d:	c3                   	ret    
  40333e:	48 b8 45 72 72 6f 72 	movabs $0x43203a726f727245,%rax
  403345:	3a 20 43 
  403348:	48 ba 6c 69 65 6e 74 	movabs $0x6e7520746e65696c,%rdx
  40334f:	20 75 6e 
  403352:	48 89 45 00          	mov    %rax,0x0(%rbp)
  403356:	48 89 55 08          	mov    %rdx,0x8(%rbp)
  40335a:	48 b8 61 62 6c 65 20 	movabs $0x206f7420656c6261,%rax
  403361:	74 6f 20 
  403364:	48 ba 63 72 65 61 74 	movabs $0x7320657461657263,%rdx
  40336b:	65 20 73 
  40336e:	48 89 45 10          	mov    %rax,0x10(%rbp)
  403372:	48 89 55 18          	mov    %rdx,0x18(%rbp)
  403376:	c7 45 20 6f 63 6b 65 	movl   $0x656b636f,0x20(%rbp)
  40337d:	66 c7 45 24 74 00    	movw   $0x74,0x24(%rbp)
  403383:	b8 ff ff ff ff       	mov    $0xffffffff,%eax
  403388:	eb 97                	jmp    403321 <init_driver+0xe7>
  40338a:	48 b8 45 72 72 6f 72 	movabs $0x44203a726f727245,%rax
  403391:	3a 20 44 
  403394:	48 ba 4e 53 20 69 73 	movabs $0x6e7520736920534e,%rdx
  40339b:	20 75 6e 
  40339e:	48 89 45 00          	mov    %rax,0x0(%rbp)
  4033a2:	48 89 55 08          	mov    %rdx,0x8(%rbp)
  4033a6:	48 b8 61 62 6c 65 20 	movabs $0x206f7420656c6261,%rax
  4033ad:	74 6f 20 
  4033b0:	48 ba 72 65 73 6f 6c 	movabs $0x2065766c6f736572,%rdx
  4033b7:	76 65 20 
  4033ba:	48 89 45 10          	mov    %rax,0x10(%rbp)
  4033be:	48 89 55 18          	mov    %rdx,0x18(%rbp)
  4033c2:	48 b8 73 65 72 76 65 	movabs $0x6120726576726573,%rax
  4033c9:	72 20 61 
  4033cc:	48 89 45 20          	mov    %rax,0x20(%rbp)
  4033d0:	c7 45 28 64 64 72 65 	movl   $0x65726464,0x28(%rbp)
  4033d7:	66 c7 45 2c 73 73    	movw   $0x7373,0x2c(%rbp)
  4033dd:	c6 45 2e 00          	movb   $0x0,0x2e(%rbp)
  4033e1:	89 df                	mov    %ebx,%edi
  4033e3:	e8 48 df ff ff       	call   401330 <close@plt>
  4033e8:	b8 ff ff ff ff       	mov    $0xffffffff,%eax
  4033ed:	e9 2f ff ff ff       	jmp    403321 <init_driver+0xe7>
  4033f2:	48 b8 31 30 2e 31 36 	movabs $0x312e3036312e3031,%rax
  4033f9:	30 2e 31 
  4033fc:	48 89 45 00          	mov    %rax,0x0(%rbp)
  403400:	c7 45 08 30 36 2e 31 	movl   $0x312e3630,0x8(%rbp)
  403407:	66 c7 45 0c 39 30    	movw   $0x3039,0xc(%rbp)
  40340d:	c6 45 0e 00          	movb   $0x0,0xe(%rbp)
  403411:	48 b8 45 72 72 6f 72 	movabs $0x55203a726f727245,%rax
  403418:	3a 20 55 
  40341b:	48 ba 6e 61 62 6c 65 	movabs $0x6f7420656c62616e,%rdx
  403422:	20 74 6f 
  403425:	48 89 45 00          	mov    %rax,0x0(%rbp)
  403429:	48 89 55 08          	mov    %rdx,0x8(%rbp)
  40342d:	48 b8 20 63 6f 6e 6e 	movabs $0x7463656e6e6f6320,%rax
  403434:	65 63 74 
  403437:	48 ba 20 74 6f 20 73 	movabs $0x76726573206f7420,%rdx
  40343e:	65 72 76 
  403441:	48 89 45 10          	mov    %rax,0x10(%rbp)
  403445:	48 89 55 18          	mov    %rdx,0x18(%rbp)
  403449:	66 c7 45 20 65 72    	movw   $0x7265,0x20(%rbp)
  40344f:	c6 45 22 00          	movb   $0x0,0x22(%rbp)
  403453:	89 df                	mov    %ebx,%edi
  403455:	e8 d6 de ff ff       	call   401330 <close@plt>
  40345a:	b8 ff ff ff ff       	mov    $0xffffffff,%eax
  40345f:	e9 bd fe ff ff       	jmp    403321 <init_driver+0xe7>
  403464:	e8 87 de ff ff       	call   4012f0 <__stack_chk_fail@plt>

0000000000403469 <driver_post>:
  403469:	f3 0f 1e fa          	endbr64 
  40346d:	53                   	push   %rbx
  40346e:	4c 89 cb             	mov    %r9,%rbx
  403471:	45 85 c0             	test   %r8d,%r8d
  403474:	75 18                	jne    40348e <driver_post+0x25>
  403476:	48 85 ff             	test   %rdi,%rdi
  403479:	74 05                	je     403480 <driver_post+0x17>
  40347b:	80 3f 00             	cmpb   $0x0,(%rdi)
  40347e:	75 37                	jne    4034b7 <driver_post+0x4e>
  403480:	66 c7 03 4f 4b       	movw   $0x4b4f,(%rbx)
  403485:	c6 43 02 00          	movb   $0x0,0x2(%rbx)
  403489:	44 89 c0             	mov    %r8d,%eax
  40348c:	5b                   	pop    %rbx
  40348d:	c3                   	ret    
  40348e:	48 89 ca             	mov    %rcx,%rdx
  403491:	48 8d 35 00 13 00 00 	lea    0x1300(%rip),%rsi        # 404798 <trans_char+0xd8>
  403498:	bf 01 00 00 00       	mov    $0x1,%edi
  40349d:	b8 00 00 00 00       	mov    $0x0,%eax
  4034a2:	e8 39 df ff ff       	call   4013e0 <__printf_chk@plt>
  4034a7:	66 c7 03 4f 4b       	movw   $0x4b4f,(%rbx)
  4034ac:	c6 43 02 00          	movb   $0x0,0x2(%rbx)
  4034b0:	b8 00 00 00 00       	mov    $0x0,%eax
  4034b5:	eb d5                	jmp    40348c <driver_post+0x23>
  4034b7:	48 83 ec 08          	sub    $0x8,%rsp
  4034bb:	41 51                	push   %r9
  4034bd:	49 89 c9             	mov    %rcx,%r9
  4034c0:	49 89 d0             	mov    %rdx,%r8
  4034c3:	48 89 f9             	mov    %rdi,%rcx
  4034c6:	48 89 f2             	mov    %rsi,%rdx
  4034c9:	be 9a 3c 00 00       	mov    $0x3c9a,%esi
  4034ce:	48 8d 3d b4 12 00 00 	lea    0x12b4(%rip),%rdi        # 404789 <trans_char+0xc9>
  4034d5:	e8 ea f5 ff ff       	call   402ac4 <submitr>
  4034da:	48 83 c4 10          	add    $0x10,%rsp
  4034de:	eb ac                	jmp    40348c <driver_post+0x23>

00000000004034e0 <check>:
  4034e0:	f3 0f 1e fa          	endbr64 
  4034e4:	89 f8                	mov    %edi,%eax
  4034e6:	c1 e8 1c             	shr    $0x1c,%eax
  4034e9:	74 1d                	je     403508 <check+0x28>
  4034eb:	b9 00 00 00 00       	mov    $0x0,%ecx
  4034f0:	83 f9 1f             	cmp    $0x1f,%ecx
  4034f3:	7f 0d                	jg     403502 <check+0x22>
  4034f5:	89 f8                	mov    %edi,%eax
  4034f7:	d3 e8                	shr    %cl,%eax
  4034f9:	3c 0a                	cmp    $0xa,%al
  4034fb:	74 11                	je     40350e <check+0x2e>
  4034fd:	83 c1 08             	add    $0x8,%ecx
  403500:	eb ee                	jmp    4034f0 <check+0x10>
  403502:	b8 01 00 00 00       	mov    $0x1,%eax
  403507:	c3                   	ret    
  403508:	b8 00 00 00 00       	mov    $0x0,%eax
  40350d:	c3                   	ret    
  40350e:	b8 00 00 00 00       	mov    $0x0,%eax
  403513:	c3                   	ret    

0000000000403514 <gencookie>:
  403514:	f3 0f 1e fa          	endbr64 
  403518:	53                   	push   %rbx
  403519:	83 c7 01             	add    $0x1,%edi
  40351c:	e8 5f dd ff ff       	call   401280 <srandom@plt>
  403521:	e8 8a de ff ff       	call   4013b0 <random@plt>
  403526:	89 c3                	mov    %eax,%ebx
  403528:	89 c7                	mov    %eax,%edi
  40352a:	e8 b1 ff ff ff       	call   4034e0 <check>
  40352f:	85 c0                	test   %eax,%eax
  403531:	74 ee                	je     403521 <gencookie+0xd>
  403533:	89 d8                	mov    %ebx,%eax
  403535:	5b                   	pop    %rbx
  403536:	c3                   	ret    

Disassembly of section .fini:

0000000000403538 <_fini>:
  403538:	f3 0f 1e fa          	endbr64 
  40353c:	48 83 ec 08          	sub    $0x8,%rsp
  403540:	48 83 c4 08          	add    $0x8,%rsp
  403544:	c3                   	ret    
